
bin\Debug\AGV_PROJECT_B2.elf:     file format elf32-avr

Sections:
Idx Name          Size      VMA       LMA       File off  Algn
  0 .data         00000000  00800200  00000c08  00000cbc  2**0
                  CONTENTS, ALLOC, LOAD, DATA
  1 .text         00000c08  00000000  00000000  000000b4  2**1
                  CONTENTS, ALLOC, LOAD, READONLY, CODE
  2 .bss          00000010  00800200  00800200  00000cbc  2**0
                  ALLOC
  3 .fuse         00000003  00820000  00820000  00000cbc  2**0
                  CONTENTS, ALLOC, LOAD, DATA
  4 .comment      00000012  00000000  00000000  00000cbf  2**0
                  CONTENTS, READONLY
  5 .note.gnu.avr.deviceinfo 00000040  00000000  00000000  00000cd4  2**2
                  CONTENTS, READONLY, OCTETS
  6 .debug_aranges 00000118  00000000  00000000  00000d18  2**3
                  CONTENTS, READONLY, DEBUGGING, OCTETS
  7 .debug_info   00001781  00000000  00000000  00000e30  2**0
                  CONTENTS, READONLY, DEBUGGING, OCTETS
  8 .debug_abbrev 0000110d  00000000  00000000  000025b1  2**0
                  CONTENTS, READONLY, DEBUGGING, OCTETS
  9 .debug_line   00001076  00000000  00000000  000036be  2**0
                  CONTENTS, READONLY, DEBUGGING, OCTETS
 10 .debug_frame  00000238  00000000  00000000  00004734  2**2
                  CONTENTS, READONLY, DEBUGGING, OCTETS
 11 .debug_str    00000802  00000000  00000000  0000496c  2**0
                  CONTENTS, READONLY, DEBUGGING, OCTETS
 12 .debug_line_str 000001f4  00000000  00000000  0000516e  2**0
                  CONTENTS, READONLY, DEBUGGING, OCTETS
 13 .debug_loclists 00000296  00000000  00000000  00005362  2**0
                  CONTENTS, READONLY, DEBUGGING, OCTETS

Disassembly of section .text:

00000000 <__vectors>:
   0:	0c 94 72 00 	jmp	0xe4	; 0xe4 <__ctors_end>
   4:	0c 94 86 00 	jmp	0x10c	; 0x10c <__bad_interrupt>
   8:	0c 94 86 00 	jmp	0x10c	; 0x10c <__bad_interrupt>
   c:	0c 94 86 00 	jmp	0x10c	; 0x10c <__bad_interrupt>
  10:	0c 94 86 00 	jmp	0x10c	; 0x10c <__bad_interrupt>
  14:	0c 94 86 00 	jmp	0x10c	; 0x10c <__bad_interrupt>
  18:	0c 94 86 00 	jmp	0x10c	; 0x10c <__bad_interrupt>
  1c:	0c 94 86 00 	jmp	0x10c	; 0x10c <__bad_interrupt>
  20:	0c 94 86 00 	jmp	0x10c	; 0x10c <__bad_interrupt>
  24:	0c 94 86 00 	jmp	0x10c	; 0x10c <__bad_interrupt>
  28:	0c 94 86 00 	jmp	0x10c	; 0x10c <__bad_interrupt>
  2c:	0c 94 86 00 	jmp	0x10c	; 0x10c <__bad_interrupt>
  30:	0c 94 86 00 	jmp	0x10c	; 0x10c <__bad_interrupt>
  34:	0c 94 86 00 	jmp	0x10c	; 0x10c <__bad_interrupt>
  38:	0c 94 86 00 	jmp	0x10c	; 0x10c <__bad_interrupt>
  3c:	0c 94 86 00 	jmp	0x10c	; 0x10c <__bad_interrupt>
  40:	0c 94 86 00 	jmp	0x10c	; 0x10c <__bad_interrupt>
  44:	0c 94 86 00 	jmp	0x10c	; 0x10c <__bad_interrupt>
  48:	0c 94 86 00 	jmp	0x10c	; 0x10c <__bad_interrupt>
  4c:	0c 94 86 00 	jmp	0x10c	; 0x10c <__bad_interrupt>
  50:	0c 94 86 00 	jmp	0x10c	; 0x10c <__bad_interrupt>
  54:	0c 94 86 00 	jmp	0x10c	; 0x10c <__bad_interrupt>
  58:	0c 94 86 00 	jmp	0x10c	; 0x10c <__bad_interrupt>
  5c:	0c 94 86 00 	jmp	0x10c	; 0x10c <__bad_interrupt>
  60:	0c 94 86 00 	jmp	0x10c	; 0x10c <__bad_interrupt>
  64:	0c 94 86 00 	jmp	0x10c	; 0x10c <__bad_interrupt>
  68:	0c 94 86 00 	jmp	0x10c	; 0x10c <__bad_interrupt>
  6c:	0c 94 86 00 	jmp	0x10c	; 0x10c <__bad_interrupt>
  70:	0c 94 86 00 	jmp	0x10c	; 0x10c <__bad_interrupt>
  74:	0c 94 86 00 	jmp	0x10c	; 0x10c <__bad_interrupt>
  78:	0c 94 86 00 	jmp	0x10c	; 0x10c <__bad_interrupt>
  7c:	0c 94 86 00 	jmp	0x10c	; 0x10c <__bad_interrupt>
  80:	0c 94 86 00 	jmp	0x10c	; 0x10c <__bad_interrupt>
  84:	0c 94 86 00 	jmp	0x10c	; 0x10c <__bad_interrupt>
  88:	0c 94 86 00 	jmp	0x10c	; 0x10c <__bad_interrupt>
  8c:	0c 94 86 00 	jmp	0x10c	; 0x10c <__bad_interrupt>
  90:	0c 94 86 00 	jmp	0x10c	; 0x10c <__bad_interrupt>
  94:	0c 94 86 00 	jmp	0x10c	; 0x10c <__bad_interrupt>
  98:	0c 94 86 00 	jmp	0x10c	; 0x10c <__bad_interrupt>
  9c:	0c 94 86 00 	jmp	0x10c	; 0x10c <__bad_interrupt>
  a0:	0c 94 86 00 	jmp	0x10c	; 0x10c <__bad_interrupt>
  a4:	0c 94 86 00 	jmp	0x10c	; 0x10c <__bad_interrupt>
  a8:	0c 94 86 00 	jmp	0x10c	; 0x10c <__bad_interrupt>
  ac:	0c 94 86 00 	jmp	0x10c	; 0x10c <__bad_interrupt>
  b0:	0c 94 86 00 	jmp	0x10c	; 0x10c <__bad_interrupt>
  b4:	0c 94 86 00 	jmp	0x10c	; 0x10c <__bad_interrupt>
  b8:	0c 94 86 00 	jmp	0x10c	; 0x10c <__bad_interrupt>
  bc:	0c 94 86 00 	jmp	0x10c	; 0x10c <__bad_interrupt>
  c0:	0c 94 86 00 	jmp	0x10c	; 0x10c <__bad_interrupt>
  c4:	0c 94 86 00 	jmp	0x10c	; 0x10c <__bad_interrupt>
  c8:	0c 94 86 00 	jmp	0x10c	; 0x10c <__bad_interrupt>
  cc:	0c 94 86 00 	jmp	0x10c	; 0x10c <__bad_interrupt>
  d0:	0c 94 86 00 	jmp	0x10c	; 0x10c <__bad_interrupt>
  d4:	0c 94 86 00 	jmp	0x10c	; 0x10c <__bad_interrupt>
  d8:	0c 94 86 00 	jmp	0x10c	; 0x10c <__bad_interrupt>
  dc:	0c 94 86 00 	jmp	0x10c	; 0x10c <__bad_interrupt>
  e0:	0c 94 86 00 	jmp	0x10c	; 0x10c <__bad_interrupt>

000000e4 <__ctors_end>:
  e4:	11 24       	eor	r1, r1
  e6:	1f be       	out	0x3f, r1	; 63
  e8:	cf ef       	ldi	r28, 0xFF	; 255
  ea:	d1 e2       	ldi	r29, 0x21	; 33
  ec:	de bf       	out	0x3e, r29	; 62
  ee:	cd bf       	out	0x3d, r28	; 61
  f0:	00 e0       	ldi	r16, 0x00	; 0
  f2:	0c bf       	out	0x3c, r16	; 60

000000f4 <__do_clear_bss>:
  f4:	22 e0       	ldi	r18, 0x02	; 2

000000f6 <.Loc.1>:
  f6:	a0 e0       	ldi	r26, 0x00	; 0

000000f8 <.Loc.2>:
  f8:	b2 e0       	ldi	r27, 0x02	; 2

000000fa <.Loc.3>:
  fa:	01 c0       	rjmp	.+2      	; 0xfe <.Loc.5>

000000fc <.Loc.4>:
  fc:	1d 92       	st	X+, r1

000000fe <.Loc.5>:
  fe:	a0 31       	cpi	r26, 0x10	; 16

00000100 <.Loc.6>:
 100:	b2 07       	cpc	r27, r18

00000102 <.Loc.7>:
 102:	e1 f7       	brne	.-8      	; 0xfc <.Loc.4>

00000104 <L0^A>:
 104:	0e 94 09 01 	call	0x212	; 0x212 <main>
 108:	0c 94 02 06 	jmp	0xc04	; 0xc04 <_exit>

0000010c <__bad_interrupt>:
 10c:	0c 94 00 00 	jmp	0	; 0x0 <__vectors>

00000110 <init_ultrasoon_sensor>:


void init_ultrasoon_sensor(void)
{
    //ULTRASOON Echo als INPUT configureren
    ULTRASOON_ECHO_R_DDR &= ~(1 << ULTRASOON_ECHO_R);
 110:	3f 98       	cbi	0x07, 7	; 7

00000112 <.Loc.3>:
    ULTRASOON_ECHO_L_DDR &= ~(1 << ULTRASOON_ECHO_L);
 112:	0e 98       	cbi	0x01, 6	; 1

00000114 <.Loc.5>:

    //ULTRASOON Trigger als OUTPUT configureren
    ULTRASOON_TRIGGER_R_DDR |= (1 << ULTRASOON_TRIGGER_R);
 114:	3e 9a       	sbi	0x07, 6	; 7

00000116 <.Loc.7>:
    ULTRASOON_TRIGGER_L_DDR |= (1 << ULTRASOON_TRIGGER_L);
 116:	0f 9a       	sbi	0x01, 7	; 1

00000118 <.Loc.10>:

    //ULTRASOON Echo laagzetten
    ULTRASOON_TRIGGER_R_PORT &= ~(1 << ULTRASOON_ECHO_R);
 118:	47 98       	cbi	0x08, 7	; 8

0000011a <.Loc.11>:
    ULTRASOON_TRIGGER_L_PORT &= ~(1 << ULTRASOON_ECHO_L);
 11a:	16 98       	cbi	0x02, 6	; 2

0000011c <.Loc.13>:
}
 11c:	08 95       	ret

0000011e <init_infrarood_sensor>:

void init_infrarood_sensor(void)
{
    //INFRAROOD AGV als input configureren
    INFRAROOD_AGV_R_DDR &= ~(1 << INFRAROOD_AGV_R);
 11e:	52 98       	cbi	0x0a, 2	; 10

00000120 <.Loc.17>:
    INFRAROOD_AGV_L_DDR &= ~(1 << INFRAROOD_AGV_L);
 120:	51 98       	cbi	0x0a, 1	; 10

00000122 <.Loc.19>:

    //INFRAROOD MODULE als input configureren
    INFRAROOD_MODULE_R_DDR &= ~(1 << INFRAROOD_MODULE_R);
 122:	6d 98       	cbi	0x0d, 5	; 13

00000124 <.Loc.21>:
    INFRAROOD_MODULE_L_DDR &= ~(1 << INFRAROOD_MODULE_L);
 124:	6c 98       	cbi	0x0d, 4	; 13

00000126 <.Loc.23>:
}
 126:	08 95       	ret

00000128 <init_knopjes>:

void init_knopjes(void)
{
    //KNOPJES als input configuren
    KNOP_1_DDR &= ~(1 << KNOP_1);
 128:	08 98       	cbi	0x01, 0	; 1

0000012a <.Loc.27>:
    KNOP_2_DDR &= ~(1 << KNOP_2);
 12a:	09 98       	cbi	0x01, 1	; 1

0000012c <.Loc.29>:
    KNOP_3_DDR &= ~(1 << KNOP_3);
 12c:	0a 98       	cbi	0x01, 2	; 1

0000012e <.Loc.31>:
    KNOP_4_DDR &= ~(1 << KNOP_4);
 12e:	0b 98       	cbi	0x01, 3	; 1

00000130 <.Loc.33>:
    KNOP_5_DDR &= ~(1 << KNOP_5);
 130:	0c 98       	cbi	0x01, 4	; 1

00000132 <.Loc.35>:
    KNOP_6_DDR &= ~(1 << KNOP_6);
 132:	0d 98       	cbi	0x01, 5	; 1

00000134 <.Loc.37>:

    //KNOPJES pull-up aanzetten
    KNOP_1_PORT &= ~(1 << KNOP_1);
 134:	10 98       	cbi	0x02, 0	; 2

00000136 <.Loc.39>:
    KNOP_2_PORT &= ~(1 << KNOP_2);
 136:	11 98       	cbi	0x02, 1	; 2

00000138 <.Loc.41>:
    KNOP_3_PORT &= ~(1 << KNOP_3);
 138:	12 98       	cbi	0x02, 2	; 2

0000013a <.Loc.43>:
    KNOP_4_PORT &= ~(1 << KNOP_4);
 13a:	13 98       	cbi	0x02, 3	; 2

0000013c <.Loc.45>:
    KNOP_5_PORT &= ~(1 << KNOP_5);
 13c:	14 98       	cbi	0x02, 4	; 2

0000013e <.Loc.47>:
    KNOP_6_PORT &= ~(1 << KNOP_6);
 13e:	15 98       	cbi	0x02, 5	; 2

00000140 <.Loc.49>:
}
 140:	08 95       	ret

00000142 <init_led>:

void init_led(void)
{
    //LED als output configuren
    LED_1_DDR |= (1 << LED_1);
 142:	22 9a       	sbi	0x04, 2	; 4

00000144 <.Loc.53>:
    LED_2_DDR |= (1 << LED_2);
 144:	21 9a       	sbi	0x04, 1	; 4

00000146 <.Loc.55>:
    LED_3_DDR |= (1 << LED_3);
 146:	20 9a       	sbi	0x04, 0	; 4

00000148 <.Loc.57>:

    //LED laag zetten
    LED_1_PORT &= ~(1 << LED_1);
 148:	2a 98       	cbi	0x05, 2	; 5

0000014a <.Loc.59>:
    LED_2_PORT &= ~(1 << LED_2);
 14a:	29 98       	cbi	0x05, 1	; 5

0000014c <.Loc.61>:
    LED_3_PORT &= ~(1 << LED_3);
 14c:	28 98       	cbi	0x05, 0	; 5

0000014e <.Loc.63>:
}
 14e:	08 95       	ret

00000150 <init_h_brug_dual>:

void init_h_brug_dual(void)
{
    //PWM als output configureren
    PWM_R_DDR |= (1 << PWM_R);
 150:	e1 e0       	ldi	r30, 0x01	; 1
 152:	f1 e0       	ldi	r31, 0x01	; 1
 154:	80 81       	ld	r24, Z

00000156 <.Loc.66>:
 156:	88 60       	ori	r24, 0x08	; 8
 158:	80 83       	st	Z, r24

0000015a <.Loc.67>:
    PWM_L_DDR |= (1 << PWM_L);
 15a:	aa e0       	ldi	r26, 0x0A	; 10
 15c:	b1 e0       	ldi	r27, 0x01	; 1
 15e:	8c 91       	ld	r24, X

00000160 <.Loc.68>:
 160:	88 60       	ori	r24, 0x08	; 8
 162:	8c 93       	st	X, r24

00000164 <.Loc.69>:

    //PWM laagzetten
    PWM_R_PORT &= ~(1 << PWM_R);
 164:	e2 e0       	ldi	r30, 0x02	; 2
 166:	f1 e0       	ldi	r31, 0x01	; 1
 168:	80 81       	ld	r24, Z
 16a:	87 7f       	andi	r24, 0xF7	; 247
 16c:	80 83       	st	Z, r24

0000016e <.Loc.71>:
    PWM_L_PORT &= ~(1 << PWM_L);
 16e:	eb e0       	ldi	r30, 0x0B	; 11
 170:	f1 e0       	ldi	r31, 0x01	; 1
 172:	80 81       	ld	r24, Z
 174:	87 7f       	andi	r24, 0xF7	; 247
 176:	80 83       	st	Z, r24

00000178 <.Loc.73>:

    //IN als output
    PWM_IN_1_DDR |= (1 << PWM_IN_1); // IN 1 --> motor A = rechts
 178:	8c 91       	ld	r24, X

0000017a <.Loc.74>:
 17a:	80 64       	ori	r24, 0x40	; 64
 17c:	8c 93       	st	X, r24

0000017e <.Loc.75>:
    PWM_IN_2_DDR |= (1 << PWM_IN_2); // IN 2 --> motor A = rechts
 17e:	8c 91       	ld	r24, X

00000180 <.Loc.76>:
 180:	80 61       	ori	r24, 0x10	; 16
 182:	8c 93       	st	X, r24

00000184 <.Loc.77>:
    PWM_IN_3_DDR |= (1 << PWM_IN_3); // IN 3 --> motor B = links
 184:	8c 91       	ld	r24, X

00000186 <.Loc.78>:
 186:	84 60       	ori	r24, 0x04	; 4
 188:	8c 93       	st	X, r24

0000018a <.Loc.79>:
    PWM_IN_4_DDR |= (1 << PWM_IN_4); // IN 4 --> motor B = links
 18a:	8c 91       	ld	r24, X

0000018c <.Loc.80>:
 18c:	81 60       	ori	r24, 0x01	; 1
 18e:	8c 93       	st	X, r24

00000190 <.Loc.81>:

    //IN laagzetten
    PWM_IN_1_PORT &= ~(1 << PWM_IN_1); // IN 1 --> motor A = rechts
 190:	80 81       	ld	r24, Z
 192:	8f 7b       	andi	r24, 0xBF	; 191
 194:	80 83       	st	Z, r24

00000196 <.Loc.83>:
    PWM_IN_2_PORT &= ~(1 << PWM_IN_2); // IN 2 --> motor A = rechts
 196:	80 81       	ld	r24, Z
 198:	8f 7e       	andi	r24, 0xEF	; 239
 19a:	80 83       	st	Z, r24

0000019c <.Loc.85>:
    PWM_IN_3_PORT &= ~(1 << PWM_IN_3); // IN 3 --> motor B = links
 19c:	80 81       	ld	r24, Z
 19e:	8b 7f       	andi	r24, 0xFB	; 251
 1a0:	80 83       	st	Z, r24

000001a2 <.Loc.87>:
    PWM_IN_4_PORT &= ~(1 << PWM_IN_4); // IN 4 --> motor B = links
 1a2:	80 81       	ld	r24, Z
 1a4:	8e 7f       	andi	r24, 0xFE	; 254
 1a6:	80 83       	st	Z, r24

000001a8 <.Loc.89>:
}
 1a8:	08 95       	ret

000001aa <init_noodstop>:

void init_noodstop(void)
{
    //NOODSTOP als input configureren
    NOODSTOP_DDR &= ~(1 << NOODSTOP);
 1aa:	50 98       	cbi	0x0a, 0	; 10

000001ac <.Loc.93>:
}
 1ac:	08 95       	ret

000001ae <init_timer_PWM>:

void init_timer_PWM(void)
{
    ICR5 = TOP_VALUE;
 1ae:	20 e4       	ldi	r18, 0x40	; 64
 1b0:	3c e9       	ldi	r19, 0x9C	; 156
 1b2:	30 93 27 01 	sts	0x0127, r19	; 0x800127 <__TEXT_REGION_LENGTH__+0x700127>
 1b6:	20 93 26 01 	sts	0x0126, r18	; 0x800126 <__TEXT_REGION_LENGTH__+0x700126>

000001ba <.Loc.97>:

    TCCR5A = (1 << WGM51) | (0 << WGM50) | (1 << COM5A1) | (0 << COM5A0);
 1ba:	92 e8       	ldi	r25, 0x82	; 130
 1bc:	90 93 20 01 	sts	0x0120, r25	; 0x800120 <__TEXT_REGION_LENGTH__+0x700120>

000001c0 <.Loc.100>:
    TCCR5B = (1 << WGM53) | (1 << WGM52) | (0 << CS52) | (0 << CS51) | (1 << CS50);
 1c0:	89 e1       	ldi	r24, 0x19	; 25
 1c2:	80 93 21 01 	sts	0x0121, r24	; 0x800121 <__TEXT_REGION_LENGTH__+0x700121>

000001c6 <.Loc.101>:

    ICR4 = TOP_VALUE;
 1c6:	30 93 a7 00 	sts	0x00A7, r19	; 0x8000a7 <__TEXT_REGION_LENGTH__+0x7000a7>
 1ca:	20 93 a6 00 	sts	0x00A6, r18	; 0x8000a6 <__TEXT_REGION_LENGTH__+0x7000a6>

000001ce <.Loc.103>:

    TCCR4A = (1 << WGM41) | (0 << WGM40) | (1 << COM4A1) | (0 << COM4A0);
 1ce:	90 93 a0 00 	sts	0x00A0, r25	; 0x8000a0 <__TEXT_REGION_LENGTH__+0x7000a0>

000001d2 <.Loc.105>:
    TCCR4B = (1 << WGM43) | (1 << WGM42) | (0 << CS42) | (0 << CS41) | (1 << CS40);
 1d2:	80 93 a1 00 	sts	0x00A1, r24	; 0x8000a1 <__TEXT_REGION_LENGTH__+0x7000a1>

000001d6 <.Loc.107>:
}
 1d6:	08 95       	ret

000001d8 <init_timer>:

void init_timer(void)
{
    TCNT1 = RESET_VALUE_TIMER1;
 1d8:	8c ed       	ldi	r24, 0xDC	; 220
 1da:	9b e0       	ldi	r25, 0x0B	; 11
 1dc:	90 93 85 00 	sts	0x0085, r25	; 0x800085 <__TEXT_REGION_LENGTH__+0x700085>
 1e0:	80 93 84 00 	sts	0x0084, r24	; 0x800084 <__TEXT_REGION_LENGTH__+0x700084>

000001e4 <.Loc.111>:
    TCCR1A = 0;
 1e4:	10 92 80 00 	sts	0x0080, r1	; 0x800080 <__TEXT_REGION_LENGTH__+0x700080>

000001e8 <.Loc.113>:
    TCCR1B = (1 << CS12)|(0 << CS11)|(0 << CS10);
 1e8:	84 e0       	ldi	r24, 0x04	; 4
 1ea:	80 93 81 00 	sts	0x0081, r24	; 0x800081 <__TEXT_REGION_LENGTH__+0x700081>

000001ee <.Loc.115>:


}
 1ee:	08 95       	ret

000001f0 <init_function>:

void init_function(void)
{
    init_ultrasoon_sensor();
 1f0:	0e 94 88 00 	call	0x110	; 0x110 <init_ultrasoon_sensor>

000001f4 <.LVL0>:
    init_infrarood_sensor();
 1f4:	0e 94 8f 00 	call	0x11e	; 0x11e <init_infrarood_sensor>

000001f8 <.LVL1>:
    init_knopjes();
 1f8:	0e 94 94 00 	call	0x128	; 0x128 <init_knopjes>

000001fc <.LVL2>:
    init_led();
 1fc:	0e 94 a1 00 	call	0x142	; 0x142 <init_led>

00000200 <.LVL3>:
    init_h_brug_dual();
 200:	0e 94 a8 00 	call	0x150	; 0x150 <init_h_brug_dual>

00000204 <.LVL4>:
    init_noodstop();
 204:	0e 94 d5 00 	call	0x1aa	; 0x1aa <init_noodstop>

00000208 <.LVL5>:
    init_timer_PWM();
 208:	0e 94 d7 00 	call	0x1ae	; 0x1ae <init_timer_PWM>

0000020c <.LVL6>:
    init_timer();
 20c:	0e 94 ec 00 	call	0x1d8	; 0x1d8 <init_timer>

00000210 <.LVL7>:
}
 210:	08 95       	ret

00000212 <main>:

int main(void)
{

    // Insert code
    init_function();
 212:	0e 94 f8 00 	call	0x1f0	; 0x1f0 <init_function>

00000216 <.LVL0>:
    motor_L(1.0);
 216:	60 e0       	ldi	r22, 0x00	; 0
 218:	70 e0       	ldi	r23, 0x00	; 0
 21a:	80 e8       	ldi	r24, 0x80	; 128
 21c:	9f e3       	ldi	r25, 0x3F	; 63
 21e:	0e 94 4f 01 	call	0x29e	; 0x29e <motor_L>

00000222 <.LVL1>:
    motor_R(1.0);
 222:	60 e0       	ldi	r22, 0x00	; 0
 224:	70 e0       	ldi	r23, 0x00	; 0
 226:	80 e8       	ldi	r24, 0x80	; 128
 228:	9f e3       	ldi	r25, 0x3F	; 63
 22a:	0e 94 1f 01 	call	0x23e	; 0x23e <motor_R>

0000022e <.LVL2>:
    motor_config(VOORUIT,LINKS);
 22e:	61 e0       	ldi	r22, 0x01	; 1
 230:	70 e0       	ldi	r23, 0x00	; 0
 232:	80 e0       	ldi	r24, 0x00	; 0
 234:	90 e0       	ldi	r25, 0x00	; 0
 236:	0e 94 7f 01 	call	0x2fe	; 0x2fe <motor_config>

0000023a <.L2>:
    int test_count = 0;
    int temp = 0;
    int count2 = 0;


    while(1)
 23a:	ff cf       	rjmp	.-2      	; 0x23a <.L2>

0000023c <OPSLAG>:
            else if (afstand_R >= afstand_L) diffAfstand = afstand_R - afstand_L;
            test_tick = 0;
        }

        print_waarde(diffAfstand);*/
}
 23c:	08 95       	ret

0000023e <motor_R>:
#include "navigatie_lib.h"
#include "motor_lib.h"


void motor_R(float factor)
{
 23e:	cf 93       	push	r28
 240:	df 93       	push	r29
 242:	00 d0       	rcall	.+0      	; 0x244 <L0^A>

00000244 <L0^A>:
 244:	0f 92       	push	r0
 246:	cd b7       	in	r28, 0x3d	; 61
 248:	de b7       	in	r29, 0x3e	; 62

0000024a <.Loc.2>:
    int motor_PWM_R = PWM * factor;
 24a:	20 e0       	ldi	r18, 0x00	; 0
 24c:	30 e6       	ldi	r19, 0x60	; 96
 24e:	4a ee       	ldi	r20, 0xEA	; 234
 250:	56 e4       	ldi	r21, 0x46	; 70
 252:	69 83       	std	Y+1, r22	; 0x01
 254:	7a 83       	std	Y+2, r23	; 0x02
 256:	8b 83       	std	Y+3, r24	; 0x03
 258:	9c 83       	std	Y+4, r25	; 0x04
 25a:	69 81       	ldd	r22, Y+1	; 0x01
 25c:	7a 81       	ldd	r23, Y+2	; 0x02
 25e:	8b 81       	ldd	r24, Y+3	; 0x03
 260:	9c 81       	ldd	r25, Y+4	; 0x04

00000262 <.Loc.4>:
 262:	0e 94 95 05 	call	0xb2a	; 0xb2a <__mulsf3>

00000266 <.LVL2>:
 266:	69 83       	std	Y+1, r22	; 0x01
 268:	7a 83       	std	Y+2, r23	; 0x02
 26a:	8b 83       	std	Y+3, r24	; 0x03
 26c:	9c 83       	std	Y+4, r25	; 0x04
 26e:	69 81       	ldd	r22, Y+1	; 0x01
 270:	7a 81       	ldd	r23, Y+2	; 0x02
 272:	8b 81       	ldd	r24, Y+3	; 0x03
 274:	9c 81       	ldd	r25, Y+4	; 0x04
 276:	0e 94 d1 04 	call	0x9a2	; 0x9a2 <__fixsfsi>

0000027a <.LVL3>:
 27a:	86 2f       	mov	r24, r22
 27c:	97 2f       	mov	r25, r23

0000027e <.Loc.6>:
    if (motor_PWM_R >= TOP_VALUE) motor_PWM_R = TOP_VALUE;
 27e:	99 23       	and	r25, r25
 280:	5c f0       	brlt	.+22     	; 0x298 <.L4>

00000282 <.L2>:
    OCR4A = motor_PWM_R;
 282:	90 93 a9 00 	sts	0x00A9, r25	; 0x8000a9 <__TEXT_REGION_LENGTH__+0x7000a9>
 286:	80 93 a8 00 	sts	0x00A8, r24	; 0x8000a8 <__TEXT_REGION_LENGTH__+0x7000a8>

0000028a <.Loc.10>:
}
 28a:	0f 90       	pop	r0
 28c:	0f 90       	pop	r0
 28e:	0f 90       	pop	r0
 290:	0f 90       	pop	r0
 292:	df 91       	pop	r29
 294:	cf 91       	pop	r28
 296:	08 95       	ret

00000298 <.L4>:
    if (motor_PWM_R >= TOP_VALUE) motor_PWM_R = TOP_VALUE;
 298:	80 e4       	ldi	r24, 0x40	; 64
 29a:	9c e9       	ldi	r25, 0x9C	; 156
 29c:	f2 cf       	rjmp	.-28     	; 0x282 <.L2>

0000029e <motor_L>:

void motor_L(float factor)
{
 29e:	cf 93       	push	r28
 2a0:	df 93       	push	r29
 2a2:	00 d0       	rcall	.+0      	; 0x2a4 <L0^A>

000002a4 <L0^A>:
 2a4:	0f 92       	push	r0
 2a6:	cd b7       	in	r28, 0x3d	; 61
 2a8:	de b7       	in	r29, 0x3e	; 62

000002aa <.Loc.14>:
    int motor_PWM_L = PWM * factor;
 2aa:	20 e0       	ldi	r18, 0x00	; 0
 2ac:	30 e6       	ldi	r19, 0x60	; 96
 2ae:	4a ee       	ldi	r20, 0xEA	; 234
 2b0:	56 e4       	ldi	r21, 0x46	; 70
 2b2:	69 83       	std	Y+1, r22	; 0x01
 2b4:	7a 83       	std	Y+2, r23	; 0x02
 2b6:	8b 83       	std	Y+3, r24	; 0x03
 2b8:	9c 83       	std	Y+4, r25	; 0x04
 2ba:	69 81       	ldd	r22, Y+1	; 0x01
 2bc:	7a 81       	ldd	r23, Y+2	; 0x02
 2be:	8b 81       	ldd	r24, Y+3	; 0x03
 2c0:	9c 81       	ldd	r25, Y+4	; 0x04

000002c2 <.Loc.16>:
 2c2:	0e 94 95 05 	call	0xb2a	; 0xb2a <__mulsf3>

000002c6 <.LVL9>:
 2c6:	69 83       	std	Y+1, r22	; 0x01
 2c8:	7a 83       	std	Y+2, r23	; 0x02
 2ca:	8b 83       	std	Y+3, r24	; 0x03
 2cc:	9c 83       	std	Y+4, r25	; 0x04
 2ce:	69 81       	ldd	r22, Y+1	; 0x01
 2d0:	7a 81       	ldd	r23, Y+2	; 0x02
 2d2:	8b 81       	ldd	r24, Y+3	; 0x03
 2d4:	9c 81       	ldd	r25, Y+4	; 0x04
 2d6:	0e 94 d1 04 	call	0x9a2	; 0x9a2 <__fixsfsi>

000002da <.LVL10>:
 2da:	86 2f       	mov	r24, r22
 2dc:	97 2f       	mov	r25, r23

000002de <.Loc.18>:
    if (motor_PWM_L >= TOP_VALUE) motor_PWM_L = TOP_VALUE;
 2de:	99 23       	and	r25, r25
 2e0:	5c f0       	brlt	.+22     	; 0x2f8 <.L8>

000002e2 <.L6>:
    OCR5A = motor_PWM_L;
 2e2:	90 93 29 01 	sts	0x0129, r25	; 0x800129 <__TEXT_REGION_LENGTH__+0x700129>
 2e6:	80 93 28 01 	sts	0x0128, r24	; 0x800128 <__TEXT_REGION_LENGTH__+0x700128>

000002ea <.Loc.22>:
}
 2ea:	0f 90       	pop	r0
 2ec:	0f 90       	pop	r0
 2ee:	0f 90       	pop	r0
 2f0:	0f 90       	pop	r0
 2f2:	df 91       	pop	r29
 2f4:	cf 91       	pop	r28
 2f6:	08 95       	ret

000002f8 <.L8>:
    if (motor_PWM_L >= TOP_VALUE) motor_PWM_L = TOP_VALUE;
 2f8:	80 e4       	ldi	r24, 0x40	; 64
 2fa:	9c e9       	ldi	r25, 0x9C	; 156
 2fc:	f2 cf       	rjmp	.-28     	; 0x2e2 <.L6>

000002fe <motor_config>:

void motor_config(int mode, int kant)
{
 2fe:	28 2f       	mov	r18, r24
 300:	39 2f       	mov	r19, r25
 302:	86 2f       	mov	r24, r22

00000304 <.Loc.26>:
 304:	97 2f       	mov	r25, r23

00000306 <.Loc.27>:
    enum motor_actie actie = mode;
    enum richting motor = kant;
    if (kant == LINKS) // y = 0s
 306:	81 30       	cpi	r24, 0x01	; 1
 308:	91 05       	cpc	r25, r1
 30a:	59 f0       	breq	.+22     	; 0x322 <.L17>

0000030c <.Loc.31>:
                break;
            }
        }
    }

    if (motor == RECHTS) // y = 1
 30c:	89 2b       	or	r24, r25
 30e:	41 f4       	brne	.+16     	; 0x320 <.L9>

00000310 <.Loc.33>:
    {
        switch (actie)
 310:	21 30       	cpi	r18, 0x01	; 1
 312:	31 05       	cpc	r19, r1
 314:	91 f1       	breq	.+100    	; 0x37a <.L15>
 316:	22 30       	cpi	r18, 0x02	; 2
 318:	31 05       	cpc	r19, r1
 31a:	c1 f1       	breq	.+112    	; 0x38c <.L16>
 31c:	23 2b       	or	r18, r19
 31e:	21 f1       	breq	.+72     	; 0x368 <.L18>

00000320 <.L9>:
                PWM_IN_2_PORT |= (1 << PWM_IN_2);   //HIGH
                break;
            }
        }
    }
}
 320:	08 95       	ret

00000322 <.L17>:
        switch (mode)
 322:	21 30       	cpi	r18, 0x01	; 1
 324:	31 05       	cpc	r19, r1
 326:	71 f0       	breq	.+28     	; 0x344 <.L11>
 328:	22 30       	cpi	r18, 0x02	; 2
 32a:	31 05       	cpc	r19, r1
 32c:	a1 f0       	breq	.+40     	; 0x356 <.L12>
 32e:	23 2b       	or	r18, r19
 330:	b9 f7       	brne	.-18     	; 0x320 <.L9>

00000332 <.Loc.36>:
                PWM_IN_3_PORT |= (1 << PWM_IN_3);   //HIGH
 332:	eb e0       	ldi	r30, 0x0B	; 11
 334:	f1 e0       	ldi	r31, 0x01	; 1
 336:	80 81       	ld	r24, Z

00000338 <.Loc.37>:
 338:	84 60       	ori	r24, 0x04	; 4
 33a:	80 83       	st	Z, r24

0000033c <.Loc.38>:
                PWM_IN_4_PORT &= ~(1 << PWM_IN_4);  //LOW
 33c:	80 81       	ld	r24, Z
 33e:	8e 7f       	andi	r24, 0xFE	; 254
 340:	80 83       	st	Z, r24

00000342 <.Loc.40>:
                break;
 342:	08 95       	ret

00000344 <.L11>:
                PWM_IN_3_PORT &= ~(1 << PWM_IN_3);  //LOW
 344:	eb e0       	ldi	r30, 0x0B	; 11
 346:	f1 e0       	ldi	r31, 0x01	; 1
 348:	80 81       	ld	r24, Z

0000034a <.Loc.43>:
 34a:	8b 7f       	andi	r24, 0xFB	; 251
 34c:	80 83       	st	Z, r24

0000034e <.Loc.44>:
                PWM_IN_4_PORT |= (1 << PWM_IN_4);   //HIGH
 34e:	80 81       	ld	r24, Z

00000350 <.Loc.45>:
 350:	81 60       	ori	r24, 0x01	; 1
 352:	80 83       	st	Z, r24

00000354 <.Loc.46>:
                break;
 354:	08 95       	ret

00000356 <.L12>:
                PWM_IN_3_PORT |= (1 << PWM_IN_3);   //HIGH
 356:	eb e0       	ldi	r30, 0x0B	; 11
 358:	f1 e0       	ldi	r31, 0x01	; 1
 35a:	80 81       	ld	r24, Z

0000035c <.Loc.48>:
 35c:	84 60       	ori	r24, 0x04	; 4
 35e:	80 83       	st	Z, r24

00000360 <.Loc.49>:
                PWM_IN_4_PORT |= (1 << PWM_IN_4);   //HIGH
 360:	80 81       	ld	r24, Z

00000362 <.Loc.50>:
 362:	81 60       	ori	r24, 0x01	; 1
 364:	80 83       	st	Z, r24

00000366 <.Loc.51>:
                break;
 366:	08 95       	ret

00000368 <.L18>:
                PWM_IN_1_PORT |= (1 << PWM_IN_1);   //HIGH
 368:	eb e0       	ldi	r30, 0x0B	; 11
 36a:	f1 e0       	ldi	r31, 0x01	; 1
 36c:	80 81       	ld	r24, Z

0000036e <.Loc.53>:
 36e:	80 64       	ori	r24, 0x40	; 64
 370:	80 83       	st	Z, r24

00000372 <.Loc.54>:
                PWM_IN_2_PORT &= ~(1 << PWM_IN_2);  //LOW
 372:	80 81       	ld	r24, Z
 374:	8f 7e       	andi	r24, 0xEF	; 239
 376:	80 83       	st	Z, r24

00000378 <.Loc.56>:
                break;
 378:	08 95       	ret

0000037a <.L15>:
                PWM_IN_1_PORT &= ~(1 << PWM_IN_1);  //LOW
 37a:	eb e0       	ldi	r30, 0x0B	; 11
 37c:	f1 e0       	ldi	r31, 0x01	; 1
 37e:	80 81       	ld	r24, Z

00000380 <.Loc.59>:
 380:	8f 7b       	andi	r24, 0xBF	; 191
 382:	80 83       	st	Z, r24

00000384 <.Loc.60>:
                PWM_IN_2_PORT |= (1 << PWM_IN_2);   //HIGH
 384:	80 81       	ld	r24, Z

00000386 <.Loc.61>:
 386:	80 61       	ori	r24, 0x10	; 16
 388:	80 83       	st	Z, r24

0000038a <.Loc.62>:
                break;
 38a:	08 95       	ret

0000038c <.L16>:
                PWM_IN_1_PORT |= (1 << PWM_IN_1);   //HIGH
 38c:	eb e0       	ldi	r30, 0x0B	; 11
 38e:	f1 e0       	ldi	r31, 0x01	; 1
 390:	80 81       	ld	r24, Z

00000392 <.Loc.64>:
 392:	80 64       	ori	r24, 0x40	; 64
 394:	80 83       	st	Z, r24

00000396 <.Loc.65>:
                PWM_IN_2_PORT |= (1 << PWM_IN_2);   //HIGH
 396:	80 81       	ld	r24, Z

00000398 <.Loc.66>:
 398:	80 61       	ori	r24, 0x10	; 16
 39a:	80 83       	st	Z, r24

0000039c <.Loc.67>:
}
 39c:	c1 cf       	rjmp	.-126    	; 0x320 <.L9>

0000039e <keren>:

void keren(int richting)
{

}
 39e:	08 95       	ret

000003a0 <percentageSteering_R>:
#include "navigatie_lib.h"
#include "motor_lib.h"


float percentageSteering_R(int temp) //int diffAfstand
{
 3a0:	cf 93       	push	r28
 3a2:	df 93       	push	r29
 3a4:	00 d0       	rcall	.+0      	; 0x3a6 <L0^A>

000003a6 <L0^A>:
 3a6:	0f 92       	push	r0
 3a8:	cd b7       	in	r28, 0x3d	; 61
 3aa:	de b7       	in	r29, 0x3e	; 62
 3ac:	28 2f       	mov	r18, r24
 3ae:	39 2f       	mov	r19, r25

000003b0 <.Loc.2>:
    static float helftPadBreedte = HALF_PAD;
    static float percentageAfwijking = 0;
    if (helftPadBreedte < temp)  percentageAfwijking = 0;
 3b0:	20 31       	cpi	r18, 0x10	; 16
 3b2:	31 05       	cpc	r19, r1
 3b4:	0c f0       	brlt	.+2      	; 0x3b8 <.Loc.6>

000003b6 <L0^A>:
 3b6:	41 c0       	rjmp	.+130    	; 0x43a <.L3>

000003b8 <.Loc.6>:
 3b8:	c9 01       	movw	r24, r18
 3ba:	33 0f       	add	r19, r19
 3bc:	aa 0b       	sbc	r26, r26
 3be:	bb 0b       	sbc	r27, r27

000003c0 <.Loc.8>:
 3c0:	89 83       	std	Y+1, r24	; 0x01
 3c2:	9a 83       	std	Y+2, r25	; 0x02
 3c4:	ab 83       	std	Y+3, r26	; 0x03
 3c6:	bc 83       	std	Y+4, r27	; 0x04
 3c8:	bc 01       	movw	r22, r24
 3ca:	cd 01       	movw	r24, r26
 3cc:	0e 94 09 05 	call	0xa12	; 0xa12 <__floatsisf>

000003d0 <.LVL2>:
    else percentageAfwijking = (helftPadBreedte - temp)/helftPadBreedte;
 3d0:	26 2f       	mov	r18, r22
 3d2:	37 2f       	mov	r19, r23
 3d4:	48 2f       	mov	r20, r24
 3d6:	59 2f       	mov	r21, r25
 3d8:	60 e0       	ldi	r22, 0x00	; 0
 3da:	70 e0       	ldi	r23, 0x00	; 0
 3dc:	80 e7       	ldi	r24, 0x70	; 112
 3de:	91 e4       	ldi	r25, 0x41	; 65
 3e0:	0e 94 f2 03 	call	0x7e4	; 0x7e4 <__subsf3>

000003e4 <.LVL3>:
 3e4:	20 e0       	ldi	r18, 0x00	; 0
 3e6:	30 e0       	ldi	r19, 0x00	; 0
 3e8:	40 e7       	ldi	r20, 0x70	; 112
 3ea:	51 e4       	ldi	r21, 0x41	; 65
 3ec:	69 83       	std	Y+1, r22	; 0x01
 3ee:	7a 83       	std	Y+2, r23	; 0x02
 3f0:	8b 83       	std	Y+3, r24	; 0x03
 3f2:	9c 83       	std	Y+4, r25	; 0x04
 3f4:	69 81       	ldd	r22, Y+1	; 0x01
 3f6:	7a 81       	ldd	r23, Y+2	; 0x02
 3f8:	8b 81       	ldd	r24, Y+3	; 0x03
 3fa:	9c 81       	ldd	r25, Y+4	; 0x04
 3fc:	0e 94 5f 04 	call	0x8be	; 0x8be <__divsf3>

00000400 <.LVL4>:
 400:	36 2f       	mov	r19, r22
 402:	27 2f       	mov	r18, r23

00000404 <.L2>:
    if (helftPadBreedte < temp)  percentageAfwijking = 0;
 404:	43 2f       	mov	r20, r19
 406:	52 2f       	mov	r21, r18
 408:	68 2f       	mov	r22, r24
 40a:	79 2f       	mov	r23, r25
 40c:	40 93 0c 02 	sts	0x020C, r20	; 0x80020c <percentageAfwijking.7>
 410:	50 93 0d 02 	sts	0x020D, r21	; 0x80020d <percentageAfwijking.7+0x1>
 414:	60 93 0e 02 	sts	0x020E, r22	; 0x80020e <percentageAfwijking.7+0x2>
 418:	70 93 0f 02 	sts	0x020F, r23	; 0x80020f <percentageAfwijking.7+0x3>

0000041c <.Loc.12>:
    return percentageAfwijking;
}
 41c:	39 83       	std	Y+1, r19	; 0x01
 41e:	2a 83       	std	Y+2, r18	; 0x02
 420:	8b 83       	std	Y+3, r24	; 0x03
 422:	9c 83       	std	Y+4, r25	; 0x04
 424:	69 81       	ldd	r22, Y+1	; 0x01
 426:	7a 81       	ldd	r23, Y+2	; 0x02
 428:	8b 81       	ldd	r24, Y+3	; 0x03
 42a:	9c 81       	ldd	r25, Y+4	; 0x04
 42c:	0f 90       	pop	r0
 42e:	0f 90       	pop	r0
 430:	0f 90       	pop	r0
 432:	0f 90       	pop	r0
 434:	df 91       	pop	r29
 436:	cf 91       	pop	r28
 438:	08 95       	ret

0000043a <.L3>:
 43a:	30 e0       	ldi	r19, 0x00	; 0
 43c:	20 e0       	ldi	r18, 0x00	; 0
 43e:	80 e0       	ldi	r24, 0x00	; 0

00000440 <.Loc.15>:
 440:	90 e0       	ldi	r25, 0x00	; 0
 442:	e0 cf       	rjmp	.-64     	; 0x404 <.L2>

00000444 <percentageSteering_L>:

float percentageSteering_L(int temp) //int diffAfstand
{
 444:	cf 93       	push	r28
 446:	df 93       	push	r29
 448:	00 d0       	rcall	.+0      	; 0x44a <L0^A>

0000044a <L0^A>:
 44a:	0f 92       	push	r0
 44c:	cd b7       	in	r28, 0x3d	; 61
 44e:	de b7       	in	r29, 0x3e	; 62
 450:	28 2f       	mov	r18, r24
 452:	39 2f       	mov	r19, r25

00000454 <.Loc.18>:
    static float helftPadBreedte = HALF_PAD;
    static float percentageAfwijking = 0;
    if (helftPadBreedte < temp)  percentageAfwijking = 0;
 454:	20 31       	cpi	r18, 0x10	; 16
 456:	31 05       	cpc	r19, r1
 458:	0c f0       	brlt	.+2      	; 0x45c <.Loc.22>

0000045a <L0^A>:
 45a:	41 c0       	rjmp	.+130    	; 0x4de <.L6>

0000045c <.Loc.22>:
 45c:	c9 01       	movw	r24, r18
 45e:	33 0f       	add	r19, r19
 460:	aa 0b       	sbc	r26, r26
 462:	bb 0b       	sbc	r27, r27

00000464 <.Loc.24>:
 464:	89 83       	std	Y+1, r24	; 0x01
 466:	9a 83       	std	Y+2, r25	; 0x02
 468:	ab 83       	std	Y+3, r26	; 0x03
 46a:	bc 83       	std	Y+4, r27	; 0x04
 46c:	bc 01       	movw	r22, r24
 46e:	cd 01       	movw	r24, r26
 470:	0e 94 09 05 	call	0xa12	; 0xa12 <__floatsisf>

00000474 <.LVL9>:
    else percentageAfwijking = (helftPadBreedte - temp)/helftPadBreedte;
 474:	26 2f       	mov	r18, r22
 476:	37 2f       	mov	r19, r23
 478:	48 2f       	mov	r20, r24
 47a:	59 2f       	mov	r21, r25
 47c:	60 e0       	ldi	r22, 0x00	; 0
 47e:	70 e0       	ldi	r23, 0x00	; 0
 480:	80 e7       	ldi	r24, 0x70	; 112
 482:	91 e4       	ldi	r25, 0x41	; 65
 484:	0e 94 f2 03 	call	0x7e4	; 0x7e4 <__subsf3>

00000488 <.LVL10>:
 488:	20 e0       	ldi	r18, 0x00	; 0
 48a:	30 e0       	ldi	r19, 0x00	; 0
 48c:	40 e7       	ldi	r20, 0x70	; 112
 48e:	51 e4       	ldi	r21, 0x41	; 65
 490:	69 83       	std	Y+1, r22	; 0x01
 492:	7a 83       	std	Y+2, r23	; 0x02
 494:	8b 83       	std	Y+3, r24	; 0x03
 496:	9c 83       	std	Y+4, r25	; 0x04
 498:	69 81       	ldd	r22, Y+1	; 0x01
 49a:	7a 81       	ldd	r23, Y+2	; 0x02
 49c:	8b 81       	ldd	r24, Y+3	; 0x03
 49e:	9c 81       	ldd	r25, Y+4	; 0x04
 4a0:	0e 94 5f 04 	call	0x8be	; 0x8be <__divsf3>

000004a4 <.LVL11>:
 4a4:	36 2f       	mov	r19, r22
 4a6:	27 2f       	mov	r18, r23

000004a8 <.L5>:
    if (helftPadBreedte < temp)  percentageAfwijking = 0;
 4a8:	43 2f       	mov	r20, r19
 4aa:	52 2f       	mov	r21, r18
 4ac:	68 2f       	mov	r22, r24
 4ae:	79 2f       	mov	r23, r25
 4b0:	40 93 08 02 	sts	0x0208, r20	; 0x800208 <percentageAfwijking.5>
 4b4:	50 93 09 02 	sts	0x0209, r21	; 0x800209 <percentageAfwijking.5+0x1>
 4b8:	60 93 0a 02 	sts	0x020A, r22	; 0x80020a <percentageAfwijking.5+0x2>
 4bc:	70 93 0b 02 	sts	0x020B, r23	; 0x80020b <percentageAfwijking.5+0x3>

000004c0 <.Loc.28>:
    return percentageAfwijking;
}
 4c0:	39 83       	std	Y+1, r19	; 0x01
 4c2:	2a 83       	std	Y+2, r18	; 0x02
 4c4:	8b 83       	std	Y+3, r24	; 0x03
 4c6:	9c 83       	std	Y+4, r25	; 0x04
 4c8:	69 81       	ldd	r22, Y+1	; 0x01
 4ca:	7a 81       	ldd	r23, Y+2	; 0x02
 4cc:	8b 81       	ldd	r24, Y+3	; 0x03
 4ce:	9c 81       	ldd	r25, Y+4	; 0x04
 4d0:	0f 90       	pop	r0
 4d2:	0f 90       	pop	r0
 4d4:	0f 90       	pop	r0
 4d6:	0f 90       	pop	r0
 4d8:	df 91       	pop	r29
 4da:	cf 91       	pop	r28
 4dc:	08 95       	ret

000004de <.L6>:
 4de:	30 e0       	ldi	r19, 0x00	; 0
 4e0:	20 e0       	ldi	r18, 0x00	; 0
 4e2:	80 e0       	ldi	r24, 0x00	; 0

000004e4 <.Loc.31>:
 4e4:	90 e0       	ldi	r25, 0x00	; 0
 4e6:	e0 cf       	rjmp	.-64     	; 0x4a8 <.L5>

000004e8 <padNavigeren>:

void padNavigeren(void)
{
 4e8:	cf 93       	push	r28
 4ea:	df 93       	push	r29
 4ec:	00 d0       	rcall	.+0      	; 0x4ee <L0^A>

000004ee <L0^A>:
 4ee:	0f 92       	push	r0
 4f0:	cd b7       	in	r28, 0x3d	; 61
 4f2:	de b7       	in	r29, 0x3e	; 62

000004f4 <.L15>:
    static int afstand_L = 0;
    static int afstand_R = 0;
    static int meet_tick = 0;
    while (wandenWeg <= 5)
    {
        afstand_L = ultrasoonAfstand_L();
 4f4:	0e 94 90 03 	call	0x720	; 0x720 <ultrasoonAfstand_L>

000004f8 <.LVL14>:
 4f8:	90 93 07 02 	sts	0x0207, r25	; 0x800207 <afstand_L.4+0x1>
 4fc:	80 93 06 02 	sts	0x0206, r24	; 0x800206 <afstand_L.4>

00000500 <.Loc.43>:
        afstand_R = ultrasoonAfstand_R();
 500:	0e 94 2e 03 	call	0x65c	; 0x65c <ultrasoonAfstand_R>

00000504 <.LVL15>:
 504:	28 2f       	mov	r18, r24
 506:	39 2f       	mov	r19, r25

00000508 <.Loc.45>:
 508:	30 93 05 02 	sts	0x0205, r19	; 0x800205 <afstand_R.3+0x1>
 50c:	20 93 04 02 	sts	0x0204, r18	; 0x800204 <afstand_R.3>

00000510 <.Loc.46>:
        //if (ultrasoonAfstand_R() < 100 && ultrasoonAfstand_L() < 100) wandenWeg++;
        //else

        {
            if (meet_tick++ > 15 )
 510:	80 91 02 02 	lds	r24, 0x0202	; 0x800202 <meet_tick.2>
 514:	90 91 03 02 	lds	r25, 0x0203	; 0x800203 <meet_tick.2+0x1>
 518:	ac 01       	movw	r20, r24
 51a:	4f 5f       	subi	r20, 0xFF	; 255
 51c:	5f 4f       	sbci	r21, 0xFF	; 255
 51e:	50 93 03 02 	sts	0x0203, r21	; 0x800203 <meet_tick.2+0x1>
 522:	40 93 02 02 	sts	0x0202, r20	; 0x800202 <meet_tick.2>

00000526 <.Loc.48>:
 526:	40 97       	sbiw	r24, 0x10	; 16
 528:	2c f3       	brlt	.-54     	; 0x4f4 <.L15>

0000052a <.Loc.49>:
            //wandenWeg = 0;

            //motor_R(percentageSteering_R());
            //motor_L(percentageSteering_L());

            if (afstand_L > afstand_R)
 52a:	80 91 06 02 	lds	r24, 0x0206	; 0x800206 <afstand_L.4>
 52e:	90 91 07 02 	lds	r25, 0x0207	; 0x800207 <afstand_L.4+0x1>

00000532 <.Loc.51>:
 532:	28 17       	cp	r18, r24
 534:	39 07       	cpc	r19, r25
 536:	bc f1       	brlt	.+110    	; 0x5a6 <.L16>

00000538 <.Loc.52>:
                diffAfstand = afstand_L - afstand_R;
                motor_L(1.0);
                motor_R(percentageSteering_R(diffAfstand));
            }

            else if (afstand_R > afstand_L)
 538:	82 17       	cp	r24, r18
 53a:	93 07       	cpc	r25, r19
 53c:	0c f0       	brlt	.+2      	; 0x540 <.Loc.54>

0000053e <L0^A>:
 53e:	50 c0       	rjmp	.+160    	; 0x5e0 <.L11>

00000540 <.Loc.54>:
            {
                diffAfstand = afstand_R - afstand_L;
 540:	a9 01       	movw	r20, r18
 542:	48 1b       	sub	r20, r24
 544:	59 0b       	sbc	r21, r25
 546:	ca 01       	movw	r24, r20

00000548 <.Loc.56>:
 548:	50 93 01 02 	sts	0x0201, r21	; 0x800201 <diffAfstand.1+0x1>
 54c:	40 93 00 02 	sts	0x0200, r20	; 0x800200 <diffAfstand.1>

00000550 <.Loc.57>:
                motor_L(percentageSteering_L(diffAfstand));
 550:	0e 94 22 02 	call	0x444	; 0x444 <percentageSteering_L>

00000554 <.LVL16>:
 554:	69 83       	std	Y+1, r22	; 0x01
 556:	7a 83       	std	Y+2, r23	; 0x02
 558:	8b 83       	std	Y+3, r24	; 0x03
 55a:	9c 83       	std	Y+4, r25	; 0x04
 55c:	69 81       	ldd	r22, Y+1	; 0x01
 55e:	7a 81       	ldd	r23, Y+2	; 0x02
 560:	8b 81       	ldd	r24, Y+3	; 0x03
 562:	9c 81       	ldd	r25, Y+4	; 0x04
 564:	0e 94 4f 01 	call	0x29e	; 0x29e <motor_L>

00000568 <.LVL17>:
                motor_R(1.0);
 568:	60 e0       	ldi	r22, 0x00	; 0
 56a:	70 e0       	ldi	r23, 0x00	; 0
 56c:	80 e8       	ldi	r24, 0x80	; 128
 56e:	9f e3       	ldi	r25, 0x3F	; 63
 570:	0e 94 1f 01 	call	0x23e	; 0x23e <motor_R>

00000574 <.L10>:
                diffAfstand = 0;
                motor_L(1.0);
                motor_R(1.0);
            }

            if (afstand_R > 100 || afstand_L > 100) diffAfstand = 999;
 574:	80 91 04 02 	lds	r24, 0x0204	; 0x800204 <afstand_R.3>
 578:	90 91 05 02 	lds	r25, 0x0205	; 0x800205 <afstand_R.3+0x1>
 57c:	85 36       	cpi	r24, 0x65	; 101
 57e:	91 05       	cpc	r25, r1
 580:	3c f4       	brge	.+14     	; 0x590 <.L12>

00000582 <.Loc.61>:
 582:	80 91 06 02 	lds	r24, 0x0206	; 0x800206 <afstand_L.4>
 586:	90 91 07 02 	lds	r25, 0x0207	; 0x800207 <afstand_L.4+0x1>
 58a:	85 36       	cpi	r24, 0x65	; 101
 58c:	91 05       	cpc	r25, r1
 58e:	34 f0       	brlt	.+12     	; 0x59c <.L13>

00000590 <.L12>:
 590:	87 ee       	ldi	r24, 0xE7	; 231
 592:	93 e0       	ldi	r25, 0x03	; 3
 594:	90 93 01 02 	sts	0x0201, r25	; 0x800201 <diffAfstand.1+0x1>
 598:	80 93 00 02 	sts	0x0200, r24	; 0x800200 <diffAfstand.1>

0000059c <.L13>:
            meet_tick = 0;
 59c:	10 92 03 02 	sts	0x0203, r1	; 0x800203 <meet_tick.2+0x1>
 5a0:	10 92 02 02 	sts	0x0202, r1	; 0x800202 <meet_tick.2>
 5a4:	a7 cf       	rjmp	.-178    	; 0x4f4 <.L15>

000005a6 <.L16>:
                diffAfstand = afstand_L - afstand_R;
 5a6:	82 1b       	sub	r24, r18
 5a8:	93 0b       	sbc	r25, r19

000005aa <.Loc.68>:
 5aa:	90 93 01 02 	sts	0x0201, r25	; 0x800201 <diffAfstand.1+0x1>
 5ae:	80 93 00 02 	sts	0x0200, r24	; 0x800200 <diffAfstand.1>

000005b2 <.Loc.69>:
                motor_L(1.0);
 5b2:	60 e0       	ldi	r22, 0x00	; 0
 5b4:	70 e0       	ldi	r23, 0x00	; 0
 5b6:	80 e8       	ldi	r24, 0x80	; 128
 5b8:	9f e3       	ldi	r25, 0x3F	; 63
 5ba:	0e 94 4f 01 	call	0x29e	; 0x29e <motor_L>

000005be <.LVL19>:
                motor_R(percentageSteering_R(diffAfstand));
 5be:	80 91 00 02 	lds	r24, 0x0200	; 0x800200 <diffAfstand.1>
 5c2:	90 91 01 02 	lds	r25, 0x0201	; 0x800201 <diffAfstand.1+0x1>
 5c6:	0e 94 d0 01 	call	0x3a0	; 0x3a0 <percentageSteering_R>

000005ca <.LVL20>:
 5ca:	69 83       	std	Y+1, r22	; 0x01
 5cc:	7a 83       	std	Y+2, r23	; 0x02
 5ce:	8b 83       	std	Y+3, r24	; 0x03
 5d0:	9c 83       	std	Y+4, r25	; 0x04
 5d2:	69 81       	ldd	r22, Y+1	; 0x01
 5d4:	7a 81       	ldd	r23, Y+2	; 0x02
 5d6:	8b 81       	ldd	r24, Y+3	; 0x03
 5d8:	9c 81       	ldd	r25, Y+4	; 0x04
 5da:	0e 94 1f 01 	call	0x23e	; 0x23e <motor_R>

000005de <.LVL21>:
 5de:	ca cf       	rjmp	.-108    	; 0x574 <.L10>

000005e0 <.L11>:
                diffAfstand = 0;
 5e0:	10 92 01 02 	sts	0x0201, r1	; 0x800201 <diffAfstand.1+0x1>
 5e4:	10 92 00 02 	sts	0x0200, r1	; 0x800200 <diffAfstand.1>

000005e8 <.Loc.73>:
                motor_L(1.0);
 5e8:	60 e0       	ldi	r22, 0x00	; 0
 5ea:	70 e0       	ldi	r23, 0x00	; 0
 5ec:	80 e8       	ldi	r24, 0x80	; 128
 5ee:	9f e3       	ldi	r25, 0x3F	; 63
 5f0:	0e 94 4f 01 	call	0x29e	; 0x29e <motor_L>

000005f4 <.LVL22>:
                motor_R(1.0);
 5f4:	60 e0       	ldi	r22, 0x00	; 0
 5f6:	70 e0       	ldi	r23, 0x00	; 0
 5f8:	80 e8       	ldi	r24, 0x80	; 128
 5fa:	9f e3       	ldi	r25, 0x3F	; 63
 5fc:	0e 94 1f 01 	call	0x23e	; 0x23e <motor_R>

00000600 <.LVL23>:
 600:	b9 cf       	rjmp	.-142    	; 0x574 <.L10>

00000602 <programma_keuze>:
#include "programma_keuze.h"

int programma_keuze(void)
{
    enum programma {startUp, rechtdoor, keren_R, keren_L, pakketDetectie, parkour};
    enum programma programma = startUp;
 602:	80 e0       	ldi	r24, 0x00	; 0
 604:	90 e0       	ldi	r25, 0x00	; 0

00000606 <.Loc.4>:
    while (1)
    {
        if (!(KNOP_1_PIN & (1 << KNOP_1))) {programma = rechtdoor;}             // knop 1 --> rechtdoor
 606:	f1 e0       	ldi	r31, 0x01	; 1
 608:	e0 e0       	ldi	r30, 0x00	; 0

0000060a <.Loc.5>:
        if (!(KNOP_2_PIN & (1 << KNOP_2))) {programma = keren_R;}               // knop 2 --> keren R
 60a:	72 e0       	ldi	r23, 0x02	; 2
 60c:	60 e0       	ldi	r22, 0x00	; 0

0000060e <.Loc.6>:
        if (!(KNOP_3_PIN & (1 << KNOP_3))) {programma = keren_L;}               // knop 3 --> keren L
 60e:	53 e0       	ldi	r21, 0x03	; 3
 610:	40 e0       	ldi	r20, 0x00	; 0

00000612 <.Loc.7>:
        if (!(KNOP_4_PIN & (1 << KNOP_4))) {programma = pakketDetectie;}        // knop 4 --> pakket detectie
 612:	34 e0       	ldi	r19, 0x04	; 4
 614:	20 e0       	ldi	r18, 0x00	; 0

00000616 <.Loc.8>:
        if (!(KNOP_5_PIN & (1 << KNOP_5))) {programma= parkour;}                // knop 5 --> parkour
 616:	b5 e0       	ldi	r27, 0x05	; 5
 618:	a0 e0       	ldi	r26, 0x00	; 0
 61a:	02 c0       	rjmp	.+4      	; 0x620 <.L2>

0000061c <.L17>:
        if (!(KNOP_6_PIN & (1 << KNOP_6)) && !programma== startUp) {break;}     // knop 6 --> start programma
 61c:	00 97       	sbiw	r24, 0x00	; 0
 61e:	a9 f4       	brne	.+42     	; 0x64a <.L16>

00000620 <.L2>:
        if (!(KNOP_1_PIN & (1 << KNOP_1))) {programma = rechtdoor;}             // knop 1 --> rechtdoor
 620:	00 99       	sbic	0x00, 0	; 0
 622:	02 c0       	rjmp	.+4      	; 0x628 <.L3>

00000624 <.Loc.13>:
 624:	8f 2f       	mov	r24, r31

00000626 <.Loc.14>:
 626:	9e 2f       	mov	r25, r30

00000628 <.L3>:
        if (!(KNOP_2_PIN & (1 << KNOP_2))) {programma = keren_R;}               // knop 2 --> keren R
 628:	01 99       	sbic	0x00, 1	; 0
 62a:	02 c0       	rjmp	.+4      	; 0x630 <.L4>

0000062c <.Loc.17>:
 62c:	87 2f       	mov	r24, r23

0000062e <.Loc.18>:
 62e:	96 2f       	mov	r25, r22

00000630 <.L4>:
        if (!(KNOP_3_PIN & (1 << KNOP_3))) {programma = keren_L;}               // knop 3 --> keren L
 630:	02 99       	sbic	0x00, 2	; 0
 632:	02 c0       	rjmp	.+4      	; 0x638 <.L5>

00000634 <.Loc.21>:
 634:	85 2f       	mov	r24, r21

00000636 <.Loc.22>:
 636:	94 2f       	mov	r25, r20

00000638 <.L5>:
        if (!(KNOP_4_PIN & (1 << KNOP_4))) {programma = pakketDetectie;}        // knop 4 --> pakket detectie
 638:	03 99       	sbic	0x00, 3	; 0
 63a:	02 c0       	rjmp	.+4      	; 0x640 <.L6>

0000063c <.Loc.25>:
 63c:	83 2f       	mov	r24, r19

0000063e <.Loc.26>:
 63e:	92 2f       	mov	r25, r18

00000640 <.L6>:
        if (!(KNOP_5_PIN & (1 << KNOP_5))) {programma= parkour;}                // knop 5 --> parkour
 640:	04 9b       	sbis	0x00, 4	; 0
 642:	07 c0       	rjmp	.+14     	; 0x652 <.L7>

00000644 <.Loc.29>:
        if (!(KNOP_6_PIN & (1 << KNOP_6)) && !programma== startUp) {break;}     // knop 6 --> start programma
 644:	05 9b       	sbis	0x00, 5	; 0
 646:	ea cf       	rjmp	.-44     	; 0x61c <.L17>
 648:	eb cf       	rjmp	.-42     	; 0x620 <.L2>

0000064a <.L16>:
 64a:	08 95       	ret

0000064c <.L14>:
        if (!(KNOP_5_PIN & (1 << KNOP_5))) {programma= parkour;}                // knop 5 --> parkour
 64c:	85 e0       	ldi	r24, 0x05	; 5
 64e:	90 e0       	ldi	r25, 0x00	; 0

00000650 <.Loc.33>:
    }
    return programma;
}
 650:	08 95       	ret

00000652 <.L7>:
        if (!(KNOP_6_PIN & (1 << KNOP_6)) && !programma== startUp) {break;}     // knop 6 --> start programma
 652:	05 9b       	sbis	0x00, 5	; 0
 654:	fb cf       	rjmp	.-10     	; 0x64c <.L14>

00000656 <.Loc.38>:
        if (!(KNOP_5_PIN & (1 << KNOP_5))) {programma= parkour;}                // knop 5 --> parkour
 656:	8b 2f       	mov	r24, r27
 658:	9a 2f       	mov	r25, r26
 65a:	e2 cf       	rjmp	.-60     	; 0x620 <.L2>

0000065c <ultrasoonAfstand_R>:
#include "navigatie_lib.h"
#include "motor_lib.h"
#include "programma_keuze.h"

uint16_t ultrasoonAfstand_R(void)
{
 65c:	cf 93       	push	r28
 65e:	df 93       	push	r29
 660:	00 d0       	rcall	.+0      	; 0x662 <L0^A>

00000662 <L0^A>:
 662:	0f 92       	push	r0
 664:	cd b7       	in	r28, 0x3d	; 61
 666:	de b7       	in	r29, 0x3e	; 62

00000668 <.Loc.1>:
    // 1. Trigger
    ULTRASOON_TRIGGER_R_PORT &= ~(1 << ULTRASOON_TRIGGER_R);
 668:	46 98       	cbi	0x08, 6	; 8

0000066a <.Loc.3>:
    ULTRASOON_TRIGGER_R_PORT |= (1 << ULTRASOON_TRIGGER_R); _delay_us(10);
 66a:	46 9a       	sbi	0x08, 6	; 8

0000066c <.LBB6>:
	#else
		//round up by default
		__ticks_dc = (uint32_t)(ceil(fabs(__tmp)));
	#endif

	__builtin_avr_delay_cycles(__ticks_dc);
 66c:	25 e3       	ldi	r18, 0x35	; 53

0000066e <.L1^B1>:
 66e:	2a 95       	dec	r18
 670:	f1 f7       	brne	.-4      	; 0x66e <.L1^B1>
	...

00000674 <.LBE6>:
    ULTRASOON_TRIGGER_R_PORT &= ~(1 << ULTRASOON_TRIGGER_R);
 674:	46 98       	cbi	0x08, 6	; 8

00000676 <.Loc.16>:

    // 2. Wacht op echo
    uint32_t timeout = 10000;
 676:	80 e1       	ldi	r24, 0x10	; 16
 678:	97 e2       	ldi	r25, 0x27	; 39
 67a:	a0 e0       	ldi	r26, 0x00	; 0
 67c:	b0 e0       	ldi	r27, 0x00	; 0

0000067e <.L3>:
    while (!(ULTRASOON_ECHO_R_PIN & (1 << ULTRASOON_ECHO_R)) && timeout--);
 67e:	37 99       	sbic	0x06, 7	; 6
 680:	05 c0       	rjmp	.+10     	; 0x68c <.L2>

00000682 <.Loc.20>:
 682:	01 97       	sbiw	r24, 0x01	; 1
 684:	a1 09       	sbc	r26, r1
 686:	b1 09       	sbc	r27, r1
 688:	d0 f7       	brcc	.-12     	; 0x67e <.L3>

0000068a <.Loc.21>:
 68a:	05 c0       	rjmp	.+10     	; 0x696 <.L4>

0000068c <.L2>:
    if (timeout == 0) return 999;
 68c:	89 2b       	or	r24, r25
 68e:	8a 2b       	or	r24, r26
 690:	8b 2b       	or	r24, r27
 692:	09 f4       	brne	.+2      	; 0x696 <.L4>

00000694 <L0^A>:
 694:	42 c0       	rjmp	.+132    	; 0x71a <.L8>

00000696 <.L4>:

    // 3. Timer starten (prescaler 8)
    TCNT1 = 0;
 696:	10 92 85 00 	sts	0x0085, r1	; 0x800085 <__TEXT_REGION_LENGTH__+0x700085>
 69a:	10 92 84 00 	sts	0x0084, r1	; 0x800084 <__TEXT_REGION_LENGTH__+0x700084>

0000069e <.Loc.26>:
    TCCR1B = (1 << CS11);
 69e:	82 e0       	ldi	r24, 0x02	; 2
 6a0:	80 93 81 00 	sts	0x0081, r24	; 0x800081 <__TEXT_REGION_LENGTH__+0x700081>

000006a4 <.Loc.28>:

    // 4. Wachten op einde echo
    while (ULTRASOON_ECHO_R_PIN & (1 << ULTRASOON_ECHO_R) && TCNT1 < OVERFLOW);
 6a4:	e4 e8       	ldi	r30, 0x84	; 132
 6a6:	f0 e0       	ldi	r31, 0x00	; 0

000006a8 <.L7>:
 6a8:	37 9b       	sbis	0x06, 7	; 6
 6aa:	05 c0       	rjmp	.+10     	; 0x6b6 <.L6>

000006ac <.Loc.31>:
 6ac:	80 81       	ld	r24, Z
 6ae:	91 81       	ldd	r25, Z+1	; 0x01

000006b0 <.Loc.32>:
 6b0:	80 34       	cpi	r24, 0x40	; 64
 6b2:	9c 49       	sbci	r25, 0x9C	; 156
 6b4:	c8 f3       	brcs	.-14     	; 0x6a8 <.L7>

000006b6 <.L6>:
    TCCR1B = 0;
 6b6:	10 92 81 00 	sts	0x0081, r1	; 0x800081 <__TEXT_REGION_LENGTH__+0x700081>

000006ba <.Loc.35>:

    // 5. Bereken afstand
    uint16_t distance = TCNT1 * 0.008575;
 6ba:	80 91 84 00 	lds	r24, 0x0084	; 0x800084 <__TEXT_REGION_LENGTH__+0x700084>
 6be:	90 91 85 00 	lds	r25, 0x0085	; 0x800085 <__TEXT_REGION_LENGTH__+0x700085>

000006c2 <.Loc.37>:
 6c2:	9c 01       	movw	r18, r24
 6c4:	40 e0       	ldi	r20, 0x00	; 0
 6c6:	50 e0       	ldi	r21, 0x00	; 0
 6c8:	29 83       	std	Y+1, r18	; 0x01
 6ca:	3a 83       	std	Y+2, r19	; 0x02
 6cc:	4b 83       	std	Y+3, r20	; 0x03
 6ce:	5c 83       	std	Y+4, r21	; 0x04
 6d0:	ca 01       	movw	r24, r20
 6d2:	b9 01       	movw	r22, r18
 6d4:	0e 94 07 05 	call	0xa0e	; 0xa0e <__floatunsisf>

000006d8 <.LVL6>:
 6d8:	28 e2       	ldi	r18, 0x28	; 40
 6da:	3e e7       	ldi	r19, 0x7E	; 126
 6dc:	4c e0       	ldi	r20, 0x0C	; 12
 6de:	5c e3       	ldi	r21, 0x3C	; 60
 6e0:	69 83       	std	Y+1, r22	; 0x01
 6e2:	7a 83       	std	Y+2, r23	; 0x02
 6e4:	8b 83       	std	Y+3, r24	; 0x03
 6e6:	9c 83       	std	Y+4, r25	; 0x04
 6e8:	69 81       	ldd	r22, Y+1	; 0x01
 6ea:	7a 81       	ldd	r23, Y+2	; 0x02
 6ec:	8b 81       	ldd	r24, Y+3	; 0x03
 6ee:	9c 81       	ldd	r25, Y+4	; 0x04
 6f0:	0e 94 95 05 	call	0xb2a	; 0xb2a <__mulsf3>

000006f4 <.LVL7>:
 6f4:	69 83       	std	Y+1, r22	; 0x01
 6f6:	7a 83       	std	Y+2, r23	; 0x02
 6f8:	8b 83       	std	Y+3, r24	; 0x03
 6fa:	9c 83       	std	Y+4, r25	; 0x04
 6fc:	69 81       	ldd	r22, Y+1	; 0x01
 6fe:	7a 81       	ldd	r23, Y+2	; 0x02
 700:	8b 81       	ldd	r24, Y+3	; 0x03
 702:	9c 81       	ldd	r25, Y+4	; 0x04
 704:	0e 94 d8 04 	call	0x9b0	; 0x9b0 <__fixunssfsi>

00000708 <.LVL8>:
 708:	86 2f       	mov	r24, r22
 70a:	97 2f       	mov	r25, r23

0000070c <.L1>:

    // 6. Return waarde
    return distance;
}
 70c:	0f 90       	pop	r0
 70e:	0f 90       	pop	r0
 710:	0f 90       	pop	r0
 712:	0f 90       	pop	r0
 714:	df 91       	pop	r29
 716:	cf 91       	pop	r28
 718:	08 95       	ret

0000071a <.L8>:
    if (timeout == 0) return 999;
 71a:	87 ee       	ldi	r24, 0xE7	; 231
 71c:	93 e0       	ldi	r25, 0x03	; 3

0000071e <.Loc.42>:
 71e:	f6 cf       	rjmp	.-20     	; 0x70c <.L1>

00000720 <ultrasoonAfstand_L>:

uint16_t ultrasoonAfstand_L(void)
{
 720:	cf 93       	push	r28
 722:	df 93       	push	r29
 724:	00 d0       	rcall	.+0      	; 0x726 <L0^A>

00000726 <L0^A>:
 726:	0f 92       	push	r0
 728:	cd b7       	in	r28, 0x3d	; 61
 72a:	de b7       	in	r29, 0x3e	; 62

0000072c <.Loc.44>:
    // 1. Trigger
    ULTRASOON_TRIGGER_L_PORT &= ~(1 << ULTRASOON_TRIGGER_L); //_delay_us(2);
 72c:	17 98       	cbi	0x02, 7	; 2

0000072e <.Loc.46>:
    ULTRASOON_TRIGGER_L_PORT |= (1 << ULTRASOON_TRIGGER_L); _delay_us(10);
 72e:	17 9a       	sbi	0x02, 7	; 2

00000730 <.LBB8>:
 730:	25 e3       	ldi	r18, 0x35	; 53

00000732 <.L1^B2>:
 732:	2a 95       	dec	r18
 734:	f1 f7       	brne	.-4      	; 0x732 <.L1^B2>
	...

00000738 <.LBE8>:
    ULTRASOON_TRIGGER_L_PORT &= ~(1 << ULTRASOON_TRIGGER_L);
 738:	17 98       	cbi	0x02, 7	; 2

0000073a <.Loc.59>:

    // 2. Wacht op start echo
    uint32_t timeout = 10000;
 73a:	80 e1       	ldi	r24, 0x10	; 16
 73c:	97 e2       	ldi	r25, 0x27	; 39
 73e:	a0 e0       	ldi	r26, 0x00	; 0
 740:	b0 e0       	ldi	r27, 0x00	; 0

00000742 <.L13>:
    while(!(ULTRASOON_ECHO_L_PIN & (1 << ULTRASOON_ECHO_L)) && timeout--);
 742:	06 99       	sbic	0x00, 6	; 0
 744:	05 c0       	rjmp	.+10     	; 0x750 <.L12>

00000746 <.Loc.63>:
 746:	01 97       	sbiw	r24, 0x01	; 1
 748:	a1 09       	sbc	r26, r1
 74a:	b1 09       	sbc	r27, r1
 74c:	d0 f7       	brcc	.-12     	; 0x742 <.L13>

0000074e <.Loc.64>:
 74e:	05 c0       	rjmp	.+10     	; 0x75a <.L14>

00000750 <.L12>:
    if(timeout == 0) return 999; // Foutmelding
 750:	89 2b       	or	r24, r25
 752:	8a 2b       	or	r24, r26
 754:	8b 2b       	or	r24, r27
 756:	09 f4       	brne	.+2      	; 0x75a <.L14>

00000758 <L0^A>:
 758:	42 c0       	rjmp	.+132    	; 0x7de <.L18>

0000075a <.L14>:

    // 3. Start timer (Prescaler 8 -> 1 tick = 0.5us)
    TCNT1 = 0;
 75a:	10 92 85 00 	sts	0x0085, r1	; 0x800085 <__TEXT_REGION_LENGTH__+0x700085>
 75e:	10 92 84 00 	sts	0x0084, r1	; 0x800084 <__TEXT_REGION_LENGTH__+0x700084>

00000762 <.Loc.69>:
    TCCR1B = (1 << CS11);
 762:	82 e0       	ldi	r24, 0x02	; 2
 764:	80 93 81 00 	sts	0x0081, r24	; 0x800081 <__TEXT_REGION_LENGTH__+0x700081>

00000768 <.Loc.71>:

    // 4. Wacht op einde echo
    while((ULTRASOON_ECHO_L_PIN & (1 << ULTRASOON_ECHO_L)) && TCNT1 < OVERFLOW);
 768:	e4 e8       	ldi	r30, 0x84	; 132
 76a:	f0 e0       	ldi	r31, 0x00	; 0

0000076c <.L17>:
 76c:	06 9b       	sbis	0x00, 6	; 0
 76e:	05 c0       	rjmp	.+10     	; 0x77a <.L16>

00000770 <.Loc.74>:
 770:	80 81       	ld	r24, Z
 772:	91 81       	ldd	r25, Z+1	; 0x01

00000774 <.Loc.75>:
 774:	80 34       	cpi	r24, 0x40	; 64
 776:	9c 49       	sbci	r25, 0x9C	; 156
 778:	c8 f3       	brcs	.-14     	; 0x76c <.L17>

0000077a <.L16>:
    TCCR1B = 0; // Stop timer
 77a:	10 92 81 00 	sts	0x0081, r1	; 0x800081 <__TEXT_REGION_LENGTH__+0x700081>

0000077e <.Loc.78>:

    // 5. Bereken: ticks * 0.5us * 0.0343 / 2
    uint16_t distance = TCNT1 * 0.008575;
 77e:	80 91 84 00 	lds	r24, 0x0084	; 0x800084 <__TEXT_REGION_LENGTH__+0x700084>
 782:	90 91 85 00 	lds	r25, 0x0085	; 0x800085 <__TEXT_REGION_LENGTH__+0x700085>

00000786 <.Loc.80>:
 786:	9c 01       	movw	r18, r24
 788:	40 e0       	ldi	r20, 0x00	; 0
 78a:	50 e0       	ldi	r21, 0x00	; 0
 78c:	29 83       	std	Y+1, r18	; 0x01
 78e:	3a 83       	std	Y+2, r19	; 0x02
 790:	4b 83       	std	Y+3, r20	; 0x03
 792:	5c 83       	std	Y+4, r21	; 0x04
 794:	ca 01       	movw	r24, r20
 796:	b9 01       	movw	r22, r18
 798:	0e 94 07 05 	call	0xa0e	; 0xa0e <__floatunsisf>

0000079c <.LVL18>:
 79c:	28 e2       	ldi	r18, 0x28	; 40
 79e:	3e e7       	ldi	r19, 0x7E	; 126
 7a0:	4c e0       	ldi	r20, 0x0C	; 12
 7a2:	5c e3       	ldi	r21, 0x3C	; 60
 7a4:	69 83       	std	Y+1, r22	; 0x01
 7a6:	7a 83       	std	Y+2, r23	; 0x02
 7a8:	8b 83       	std	Y+3, r24	; 0x03
 7aa:	9c 83       	std	Y+4, r25	; 0x04
 7ac:	69 81       	ldd	r22, Y+1	; 0x01
 7ae:	7a 81       	ldd	r23, Y+2	; 0x02
 7b0:	8b 81       	ldd	r24, Y+3	; 0x03
 7b2:	9c 81       	ldd	r25, Y+4	; 0x04
 7b4:	0e 94 95 05 	call	0xb2a	; 0xb2a <__mulsf3>

000007b8 <.LVL19>:
 7b8:	69 83       	std	Y+1, r22	; 0x01
 7ba:	7a 83       	std	Y+2, r23	; 0x02
 7bc:	8b 83       	std	Y+3, r24	; 0x03
 7be:	9c 83       	std	Y+4, r25	; 0x04
 7c0:	69 81       	ldd	r22, Y+1	; 0x01
 7c2:	7a 81       	ldd	r23, Y+2	; 0x02
 7c4:	8b 81       	ldd	r24, Y+3	; 0x03
 7c6:	9c 81       	ldd	r25, Y+4	; 0x04
 7c8:	0e 94 d8 04 	call	0x9b0	; 0x9b0 <__fixunssfsi>

000007cc <.LVL20>:
 7cc:	86 2f       	mov	r24, r22
 7ce:	97 2f       	mov	r25, r23

000007d0 <.L11>:

    // 6. Return waarde
    return distance;
}
 7d0:	0f 90       	pop	r0
 7d2:	0f 90       	pop	r0
 7d4:	0f 90       	pop	r0
 7d6:	0f 90       	pop	r0
 7d8:	df 91       	pop	r29
 7da:	cf 91       	pop	r28
 7dc:	08 95       	ret

000007de <.L18>:
    if(timeout == 0) return 999; // Foutmelding
 7de:	87 ee       	ldi	r24, 0xE7	; 231
 7e0:	93 e0       	ldi	r25, 0x03	; 3

000007e2 <.Loc.85>:
 7e2:	f6 cf       	rjmp	.-20     	; 0x7d0 <.L11>

000007e4 <__subsf3>:
 7e4:	50 58       	subi	r21, 0x80	; 128

000007e6 <__addsf3>:
 7e6:	bb 27       	eor	r27, r27
 7e8:	aa 27       	eor	r26, r26
 7ea:	0e 94 0a 04 	call	0x814	; 0x814 <__addsf3x>
 7ee:	0c 94 5b 05 	jmp	0xab6	; 0xab6 <__fp_round>

000007f2 <.L^B1>:
 7f2:	0e 94 4d 05 	call	0xa9a	; 0xa9a <__fp_pscA>
 7f6:	38 f0       	brcs	.+14     	; 0x806 <.L_nan>
 7f8:	0e 94 54 05 	call	0xaa8	; 0xaa8 <__fp_pscB>
 7fc:	20 f0       	brcs	.+8      	; 0x806 <.L_nan>
 7fe:	39 f4       	brne	.+14     	; 0x80e <.L_inf>
 800:	9f 3f       	cpi	r25, 0xFF	; 255
 802:	19 f4       	brne	.+6      	; 0x80a <.L_infB>
 804:	26 f4       	brtc	.+8      	; 0x80e <.L_inf>

00000806 <.L_nan>:
 806:	0c 94 4a 05 	jmp	0xa94	; 0xa94 <__fp_nan>

0000080a <.L_infB>:
 80a:	0e f4       	brtc	.+2      	; 0x80e <.L_inf>
 80c:	e0 95       	com	r30

0000080e <.L_inf>:
 80e:	e7 fb       	bst	r30, 7
 810:	0c 94 44 05 	jmp	0xa88	; 0xa88 <__fp_inf>

00000814 <__addsf3x>:
 814:	e9 2f       	mov	r30, r25
 816:	0e 94 6c 05 	call	0xad8	; 0xad8 <__fp_split3>
 81a:	58 f3       	brcs	.-42     	; 0x7f2 <.L^B1>
 81c:	ba 17       	cp	r27, r26
 81e:	62 07       	cpc	r22, r18
 820:	73 07       	cpc	r23, r19
 822:	84 07       	cpc	r24, r20
 824:	95 07       	cpc	r25, r21
 826:	20 f0       	brcs	.+8      	; 0x830 <.L2^B1>
 828:	79 f4       	brne	.+30     	; 0x848 <.L4^B1>
 82a:	a6 f5       	brtc	.+104    	; 0x894 <.L_add>
 82c:	0c 94 8e 05 	jmp	0xb1c	; 0xb1c <__fp_zero>

00000830 <.L2^B1>:
 830:	0e f4       	brtc	.+2      	; 0x834 <.L3^B1>
 832:	e0 95       	com	r30

00000834 <.L3^B1>:
 834:	0b 2e       	mov	r0, r27
 836:	ba 2f       	mov	r27, r26
 838:	a0 2d       	mov	r26, r0
 83a:	0b 01       	movw	r0, r22
 83c:	b9 01       	movw	r22, r18
 83e:	90 01       	movw	r18, r0
 840:	0c 01       	movw	r0, r24
 842:	ca 01       	movw	r24, r20
 844:	a0 01       	movw	r20, r0
 846:	11 24       	eor	r1, r1

00000848 <.L4^B1>:
 848:	ff 27       	eor	r31, r31
 84a:	59 1b       	sub	r21, r25

0000084c <.L5^B1>:
 84c:	99 f0       	breq	.+38     	; 0x874 <.L7^B1>
 84e:	59 3f       	cpi	r21, 0xF9	; 249
 850:	50 f4       	brcc	.+20     	; 0x866 <.L6^B1>
 852:	50 3e       	cpi	r21, 0xE0	; 224
 854:	68 f1       	brcs	.+90     	; 0x8b0 <.L_ret>
 856:	1a 16       	cp	r1, r26
 858:	f0 40       	sbci	r31, 0x00	; 0
 85a:	a2 2f       	mov	r26, r18
 85c:	23 2f       	mov	r18, r19
 85e:	34 2f       	mov	r19, r20
 860:	44 27       	eor	r20, r20
 862:	58 5f       	subi	r21, 0xF8	; 248
 864:	f3 cf       	rjmp	.-26     	; 0x84c <.L5^B1>

00000866 <.L6^B1>:
 866:	46 95       	lsr	r20
 868:	37 95       	ror	r19
 86a:	27 95       	ror	r18
 86c:	a7 95       	ror	r26
 86e:	f0 40       	sbci	r31, 0x00	; 0
 870:	53 95       	inc	r21
 872:	c9 f7       	brne	.-14     	; 0x866 <.L6^B1>

00000874 <.L7^B1>:
 874:	7e f4       	brtc	.+30     	; 0x894 <.L_add>
 876:	1f 16       	cp	r1, r31
 878:	ba 0b       	sbc	r27, r26
 87a:	62 0b       	sbc	r22, r18
 87c:	73 0b       	sbc	r23, r19
 87e:	84 0b       	sbc	r24, r20
 880:	ba f0       	brmi	.+46     	; 0x8b0 <.L_ret>

00000882 <.L8^B1>:
 882:	91 50       	subi	r25, 0x01	; 1
 884:	a1 f0       	breq	.+40     	; 0x8ae <.L9^B1>
 886:	ff 0f       	add	r31, r31
 888:	bb 1f       	adc	r27, r27
 88a:	66 1f       	adc	r22, r22
 88c:	77 1f       	adc	r23, r23
 88e:	88 1f       	adc	r24, r24
 890:	c2 f7       	brpl	.-16     	; 0x882 <.L8^B1>
 892:	0e c0       	rjmp	.+28     	; 0x8b0 <.L_ret>

00000894 <.L_add>:
 894:	ba 0f       	add	r27, r26
 896:	62 1f       	adc	r22, r18
 898:	73 1f       	adc	r23, r19
 89a:	84 1f       	adc	r24, r20
 89c:	48 f4       	brcc	.+18     	; 0x8b0 <.L_ret>
 89e:	87 95       	ror	r24
 8a0:	77 95       	ror	r23
 8a2:	67 95       	ror	r22
 8a4:	b7 95       	ror	r27
 8a6:	f7 95       	ror	r31
 8a8:	9e 3f       	cpi	r25, 0xFE	; 254
 8aa:	08 f0       	brcs	.+2      	; 0x8ae <.L9^B1>
 8ac:	b0 cf       	rjmp	.-160    	; 0x80e <.L_inf>

000008ae <.L9^B1>:
 8ae:	93 95       	inc	r25

000008b0 <.L_ret>:
 8b0:	88 0f       	add	r24, r24
 8b2:	08 f0       	brcs	.+2      	; 0x8b6 <.L1^B1>
 8b4:	99 27       	eor	r25, r25

000008b6 <.L1^B1>:
 8b6:	ee 0f       	add	r30, r30
 8b8:	97 95       	ror	r25
 8ba:	87 95       	ror	r24
 8bc:	08 95       	ret

000008be <__divsf3>:
 8be:	0e 94 73 04 	call	0x8e6	; 0x8e6 <__divsf3x>
 8c2:	0c 94 5b 05 	jmp	0xab6	; 0xab6 <__fp_round>

000008c6 <.L^B1>:
 8c6:	0e 94 54 05 	call	0xaa8	; 0xaa8 <__fp_pscB>
 8ca:	58 f0       	brcs	.+22     	; 0x8e2 <.L_nan>
 8cc:	0e 94 4d 05 	call	0xa9a	; 0xa9a <__fp_pscA>
 8d0:	40 f0       	brcs	.+16     	; 0x8e2 <.L_nan>
 8d2:	29 f4       	brne	.+10     	; 0x8de <.L_zr>
 8d4:	5f 3f       	cpi	r21, 0xFF	; 255
 8d6:	29 f0       	breq	.+10     	; 0x8e2 <.L_nan>

000008d8 <.L_inf>:
 8d8:	0c 94 44 05 	jmp	0xa88	; 0xa88 <__fp_inf>

000008dc <.L1^B1>:
 8dc:	51 11       	cpse	r21, r1

000008de <.L_zr>:
 8de:	0c 94 8f 05 	jmp	0xb1e	; 0xb1e <__fp_szero>

000008e2 <.L_nan>:
 8e2:	0c 94 4a 05 	jmp	0xa94	; 0xa94 <__fp_nan>

000008e6 <__divsf3x>:
 8e6:	0e 94 6c 05 	call	0xad8	; 0xad8 <__fp_split3>
 8ea:	68 f3       	brcs	.-38     	; 0x8c6 <.L^B1>

000008ec <__divsf3_pse>:
 8ec:	99 23       	and	r25, r25
 8ee:	b1 f3       	breq	.-20     	; 0x8dc <.L1^B1>
 8f0:	55 23       	and	r21, r21
 8f2:	91 f3       	breq	.-28     	; 0x8d8 <.L_inf>
 8f4:	95 1b       	sub	r25, r21
 8f6:	55 0b       	sbc	r21, r21
 8f8:	bb 27       	eor	r27, r27
 8fa:	aa 27       	eor	r26, r26

000008fc <.L2^B1>:
 8fc:	62 17       	cp	r22, r18
 8fe:	73 07       	cpc	r23, r19
 900:	84 07       	cpc	r24, r20
 902:	38 f0       	brcs	.+14     	; 0x912 <.L3^B1>
 904:	9f 5f       	subi	r25, 0xFF	; 255
 906:	5f 4f       	sbci	r21, 0xFF	; 255
 908:	22 0f       	add	r18, r18
 90a:	33 1f       	adc	r19, r19
 90c:	44 1f       	adc	r20, r20
 90e:	aa 1f       	adc	r26, r26
 910:	a9 f3       	breq	.-22     	; 0x8fc <.L2^B1>

00000912 <.L3^B1>:
 912:	35 d0       	rcall	.+106    	; 0x97e <.L_div>
 914:	0e 2e       	mov	r0, r30
 916:	3a f0       	brmi	.+14     	; 0x926 <.L5^B1>

00000918 <.L4^B1>:
 918:	e0 e8       	ldi	r30, 0x80	; 128
 91a:	32 d0       	rcall	.+100    	; 0x980 <.L_div1>
 91c:	91 50       	subi	r25, 0x01	; 1
 91e:	50 40       	sbci	r21, 0x00	; 0
 920:	e6 95       	lsr	r30
 922:	00 1c       	adc	r0, r0
 924:	ca f7       	brpl	.-14     	; 0x918 <.L4^B1>

00000926 <.L5^B1>:
 926:	2b d0       	rcall	.+86     	; 0x97e <.L_div>
 928:	fe 2f       	mov	r31, r30
 92a:	29 d0       	rcall	.+82     	; 0x97e <.L_div>
 92c:	66 0f       	add	r22, r22
 92e:	77 1f       	adc	r23, r23
 930:	88 1f       	adc	r24, r24
 932:	bb 1f       	adc	r27, r27
 934:	26 17       	cp	r18, r22
 936:	37 07       	cpc	r19, r23
 938:	48 07       	cpc	r20, r24
 93a:	ab 07       	cpc	r26, r27
 93c:	b0 e8       	ldi	r27, 0x80	; 128
 93e:	09 f0       	breq	.+2      	; 0x942 <.L4^B2>
 940:	bb 0b       	sbc	r27, r27

00000942 <.L4^B2>:
 942:	80 2d       	mov	r24, r0
 944:	bf 01       	movw	r22, r30
 946:	ff 27       	eor	r31, r31
 948:	93 58       	subi	r25, 0x83	; 131
 94a:	5f 4f       	sbci	r21, 0xFF	; 255
 94c:	3a f0       	brmi	.+14     	; 0x95c <.L13^B1>
 94e:	9e 3f       	cpi	r25, 0xFE	; 254
 950:	51 05       	cpc	r21, r1
 952:	78 f0       	brcs	.+30     	; 0x972 <.L15^B1>
 954:	0c 94 44 05 	jmp	0xa88	; 0xa88 <__fp_inf>

00000958 <.L12^B1>:
 958:	0c 94 8f 05 	jmp	0xb1e	; 0xb1e <__fp_szero>

0000095c <.L13^B1>:
 95c:	5f 3f       	cpi	r21, 0xFF	; 255
 95e:	e4 f3       	brlt	.-8      	; 0x958 <.L12^B1>
 960:	98 3e       	cpi	r25, 0xE8	; 232
 962:	d4 f3       	brlt	.-12     	; 0x958 <.L12^B1>

00000964 <.L14^B1>:
 964:	86 95       	lsr	r24
 966:	77 95       	ror	r23
 968:	67 95       	ror	r22
 96a:	b7 95       	ror	r27
 96c:	f7 95       	ror	r31
 96e:	9f 5f       	subi	r25, 0xFF	; 255
 970:	c9 f7       	brne	.-14     	; 0x964 <.L14^B1>

00000972 <.L15^B1>:
 972:	88 0f       	add	r24, r24
 974:	91 1d       	adc	r25, r1
 976:	96 95       	lsr	r25
 978:	87 95       	ror	r24
 97a:	97 f9       	bld	r25, 7
 97c:	08 95       	ret

0000097e <.L_div>:
 97e:	e1 e0       	ldi	r30, 0x01	; 1

00000980 <.L_div1>:
 980:	66 0f       	add	r22, r22
 982:	77 1f       	adc	r23, r23
 984:	88 1f       	adc	r24, r24
 986:	bb 1f       	adc	r27, r27
 988:	62 17       	cp	r22, r18
 98a:	73 07       	cpc	r23, r19
 98c:	84 07       	cpc	r24, r20
 98e:	ba 07       	cpc	r27, r26
 990:	20 f0       	brcs	.+8      	; 0x99a <.L2^B2>
 992:	62 1b       	sub	r22, r18
 994:	73 0b       	sbc	r23, r19
 996:	84 0b       	sbc	r24, r20
 998:	ba 0b       	sbc	r27, r26

0000099a <.L2^B2>:
 99a:	ee 1f       	adc	r30, r30
 99c:	88 f7       	brcc	.-30     	; 0x980 <.L_div1>
 99e:	e0 95       	com	r30
 9a0:	08 95       	ret

000009a2 <__fixsfsi>:
 9a2:	0e 94 d8 04 	call	0x9b0	; 0x9b0 <__fixunssfsi>
 9a6:	68 94       	set
 9a8:	b1 11       	cpse	r27, r1
 9aa:	0c 94 8f 05 	jmp	0xb1e	; 0xb1e <__fp_szero>
 9ae:	08 95       	ret

000009b0 <__fixunssfsi>:
 9b0:	0e 94 74 05 	call	0xae8	; 0xae8 <__fp_splitA>
 9b4:	88 f0       	brcs	.+34     	; 0x9d8 <.L_err>
 9b6:	9f 57       	subi	r25, 0x7F	; 127
 9b8:	98 f0       	brcs	.+38     	; 0x9e0 <.L_zr>
 9ba:	b9 2f       	mov	r27, r25
 9bc:	99 27       	eor	r25, r25
 9be:	b7 51       	subi	r27, 0x17	; 23
 9c0:	b0 f0       	brcs	.+44     	; 0x9ee <.L4^B1>
 9c2:	e1 f0       	breq	.+56     	; 0x9fc <.L_sign>

000009c4 <.L1^B1>:
 9c4:	66 0f       	add	r22, r22
 9c6:	77 1f       	adc	r23, r23
 9c8:	88 1f       	adc	r24, r24
 9ca:	99 1f       	adc	r25, r25
 9cc:	1a f0       	brmi	.+6      	; 0x9d4 <.L2^B1>
 9ce:	ba 95       	dec	r27
 9d0:	c9 f7       	brne	.-14     	; 0x9c4 <.L1^B1>
 9d2:	14 c0       	rjmp	.+40     	; 0x9fc <.L_sign>

000009d4 <.L2^B1>:
 9d4:	b1 30       	cpi	r27, 0x01	; 1
 9d6:	91 f0       	breq	.+36     	; 0x9fc <.L_sign>

000009d8 <.L_err>:
 9d8:	0e 94 8e 05 	call	0xb1c	; 0xb1c <__fp_zero>
 9dc:	b1 e0       	ldi	r27, 0x01	; 1
 9de:	08 95       	ret

000009e0 <.L_zr>:
 9e0:	0c 94 8e 05 	jmp	0xb1c	; 0xb1c <__fp_zero>

000009e4 <.L3^B1>:
 9e4:	67 2f       	mov	r22, r23
 9e6:	78 2f       	mov	r23, r24
 9e8:	88 27       	eor	r24, r24
 9ea:	b8 5f       	subi	r27, 0xF8	; 248
 9ec:	39 f0       	breq	.+14     	; 0x9fc <.L_sign>

000009ee <.L4^B1>:
 9ee:	b9 3f       	cpi	r27, 0xF9	; 249
 9f0:	cc f3       	brlt	.-14     	; 0x9e4 <.L3^B1>

000009f2 <.L5^B1>:
 9f2:	86 95       	lsr	r24
 9f4:	77 95       	ror	r23
 9f6:	67 95       	ror	r22
 9f8:	b3 95       	inc	r27
 9fa:	d9 f7       	brne	.-10     	; 0x9f2 <.L5^B1>

000009fc <.L_sign>:
 9fc:	3e f4       	brtc	.+14     	; 0xa0c <.L6^B1>
 9fe:	90 95       	com	r25
 a00:	80 95       	com	r24
 a02:	70 95       	com	r23
 a04:	61 95       	neg	r22
 a06:	7f 4f       	sbci	r23, 0xFF	; 255
 a08:	8f 4f       	sbci	r24, 0xFF	; 255
 a0a:	9f 4f       	sbci	r25, 0xFF	; 255

00000a0c <.L6^B1>:
 a0c:	08 95       	ret

00000a0e <__floatunsisf>:
 a0e:	e8 94       	clt
 a10:	09 c0       	rjmp	.+18     	; 0xa24 <.L1^B1>

00000a12 <__floatsisf>:
 a12:	97 fb       	bst	r25, 7
 a14:	3e f4       	brtc	.+14     	; 0xa24 <.L1^B1>
 a16:	90 95       	com	r25
 a18:	80 95       	com	r24
 a1a:	70 95       	com	r23
 a1c:	61 95       	neg	r22
 a1e:	7f 4f       	sbci	r23, 0xFF	; 255
 a20:	8f 4f       	sbci	r24, 0xFF	; 255
 a22:	9f 4f       	sbci	r25, 0xFF	; 255

00000a24 <.L1^B1>:
 a24:	99 23       	and	r25, r25
 a26:	a9 f0       	breq	.+42     	; 0xa52 <.L4^B1>
 a28:	f9 2f       	mov	r31, r25
 a2a:	96 e9       	ldi	r25, 0x96	; 150
 a2c:	bb 27       	eor	r27, r27

00000a2e <.L2^B1>:
 a2e:	93 95       	inc	r25
 a30:	f6 95       	lsr	r31
 a32:	87 95       	ror	r24
 a34:	77 95       	ror	r23
 a36:	67 95       	ror	r22
 a38:	b7 95       	ror	r27
 a3a:	f1 11       	cpse	r31, r1
 a3c:	f8 cf       	rjmp	.-16     	; 0xa2e <.L2^B1>
 a3e:	fa f4       	brpl	.+62     	; 0xa7e <.L_pack>
 a40:	bb 0f       	add	r27, r27
 a42:	11 f4       	brne	.+4      	; 0xa48 <.L3^B1>
 a44:	60 ff       	sbrs	r22, 0
 a46:	1b c0       	rjmp	.+54     	; 0xa7e <.L_pack>

00000a48 <.L3^B1>:
 a48:	6f 5f       	subi	r22, 0xFF	; 255
 a4a:	7f 4f       	sbci	r23, 0xFF	; 255
 a4c:	8f 4f       	sbci	r24, 0xFF	; 255
 a4e:	9f 4f       	sbci	r25, 0xFF	; 255
 a50:	16 c0       	rjmp	.+44     	; 0xa7e <.L_pack>

00000a52 <.L4^B1>:
 a52:	88 23       	and	r24, r24
 a54:	11 f0       	breq	.+4      	; 0xa5a <.L5^B1>
 a56:	96 e9       	ldi	r25, 0x96	; 150
 a58:	11 c0       	rjmp	.+34     	; 0xa7c <.L8^B1>

00000a5a <.L5^B1>:
 a5a:	77 23       	and	r23, r23
 a5c:	21 f0       	breq	.+8      	; 0xa66 <.L6^B1>
 a5e:	9e e8       	ldi	r25, 0x8E	; 142
 a60:	87 2f       	mov	r24, r23
 a62:	76 2f       	mov	r23, r22
 a64:	05 c0       	rjmp	.+10     	; 0xa70 <.L7^B1>

00000a66 <.L6^B1>:
 a66:	66 23       	and	r22, r22
 a68:	71 f0       	breq	.+28     	; 0xa86 <.L9^B1>
 a6a:	96 e8       	ldi	r25, 0x86	; 134
 a6c:	86 2f       	mov	r24, r22
 a6e:	70 e0       	ldi	r23, 0x00	; 0

00000a70 <.L7^B1>:
 a70:	60 e0       	ldi	r22, 0x00	; 0
 a72:	2a f0       	brmi	.+10     	; 0xa7e <.L_pack>

00000a74 <.L10^B1>:
 a74:	9a 95       	dec	r25
 a76:	66 0f       	add	r22, r22
 a78:	77 1f       	adc	r23, r23
 a7a:	88 1f       	adc	r24, r24

00000a7c <.L8^B1>:
 a7c:	da f7       	brpl	.-10     	; 0xa74 <.L10^B1>

00000a7e <.L_pack>:
 a7e:	88 0f       	add	r24, r24
 a80:	96 95       	lsr	r25
 a82:	87 95       	ror	r24
 a84:	97 f9       	bld	r25, 7

00000a86 <.L9^B1>:
 a86:	08 95       	ret

00000a88 <__fp_inf>:
 a88:	97 f9       	bld	r25, 7
 a8a:	9f 67       	ori	r25, 0x7F	; 127
 a8c:	80 e8       	ldi	r24, 0x80	; 128
 a8e:	70 e0       	ldi	r23, 0x00	; 0
 a90:	60 e0       	ldi	r22, 0x00	; 0
 a92:	08 95       	ret

00000a94 <__fp_nan>:
 a94:	9f ef       	ldi	r25, 0xFF	; 255
 a96:	80 ec       	ldi	r24, 0xC0	; 192
 a98:	08 95       	ret

00000a9a <__fp_pscA>:
 a9a:	00 24       	eor	r0, r0
 a9c:	0a 94       	dec	r0
 a9e:	16 16       	cp	r1, r22
 aa0:	17 06       	cpc	r1, r23
 aa2:	18 06       	cpc	r1, r24
 aa4:	09 06       	cpc	r0, r25
 aa6:	08 95       	ret

00000aa8 <__fp_pscB>:
 aa8:	00 24       	eor	r0, r0
 aaa:	0a 94       	dec	r0
 aac:	12 16       	cp	r1, r18
 aae:	13 06       	cpc	r1, r19
 ab0:	14 06       	cpc	r1, r20
 ab2:	05 06       	cpc	r0, r21
 ab4:	08 95       	ret

00000ab6 <__fp_round>:
 ab6:	09 2e       	mov	r0, r25
 ab8:	03 94       	inc	r0
 aba:	00 0c       	add	r0, r0
 abc:	11 f4       	brne	.+4      	; 0xac2 <.L1^B1>
 abe:	88 23       	and	r24, r24
 ac0:	52 f0       	brmi	.+20     	; 0xad6 <.L3^B1>

00000ac2 <.L1^B1>:
 ac2:	bb 0f       	add	r27, r27
 ac4:	40 f4       	brcc	.+16     	; 0xad6 <.L3^B1>
 ac6:	bf 2b       	or	r27, r31
 ac8:	11 f4       	brne	.+4      	; 0xace <.L2^B1>
 aca:	60 ff       	sbrs	r22, 0
 acc:	04 c0       	rjmp	.+8      	; 0xad6 <.L3^B1>

00000ace <.L2^B1>:
 ace:	6f 5f       	subi	r22, 0xFF	; 255
 ad0:	7f 4f       	sbci	r23, 0xFF	; 255
 ad2:	8f 4f       	sbci	r24, 0xFF	; 255
 ad4:	9f 4f       	sbci	r25, 0xFF	; 255

00000ad6 <.L3^B1>:
 ad6:	08 95       	ret

00000ad8 <__fp_split3>:
 ad8:	57 fd       	sbrc	r21, 7
 ada:	90 58       	subi	r25, 0x80	; 128
 adc:	44 0f       	add	r20, r20
 ade:	55 1f       	adc	r21, r21
 ae0:	59 f0       	breq	.+22     	; 0xaf8 <.L4^B1>
 ae2:	5f 3f       	cpi	r21, 0xFF	; 255
 ae4:	71 f0       	breq	.+28     	; 0xb02 <.L5^B1>

00000ae6 <.L1^B1>:
 ae6:	47 95       	ror	r20

00000ae8 <__fp_splitA>:
 ae8:	88 0f       	add	r24, r24
 aea:	97 fb       	bst	r25, 7
 aec:	99 1f       	adc	r25, r25
 aee:	61 f0       	breq	.+24     	; 0xb08 <.L6^B1>
 af0:	9f 3f       	cpi	r25, 0xFF	; 255
 af2:	79 f0       	breq	.+30     	; 0xb12 <.L7^B1>

00000af4 <.L3^B1>:
 af4:	87 95       	ror	r24
 af6:	08 95       	ret

00000af8 <.L4^B1>:
 af8:	12 16       	cp	r1, r18
 afa:	13 06       	cpc	r1, r19
 afc:	14 06       	cpc	r1, r20
 afe:	55 1f       	adc	r21, r21
 b00:	f2 cf       	rjmp	.-28     	; 0xae6 <.L1^B1>

00000b02 <.L5^B1>:
 b02:	46 95       	lsr	r20
 b04:	f1 df       	rcall	.-30     	; 0xae8 <__fp_splitA>
 b06:	08 c0       	rjmp	.+16     	; 0xb18 <.L8^B1>

00000b08 <.L6^B1>:
 b08:	16 16       	cp	r1, r22
 b0a:	17 06       	cpc	r1, r23
 b0c:	18 06       	cpc	r1, r24
 b0e:	99 1f       	adc	r25, r25
 b10:	f1 cf       	rjmp	.-30     	; 0xaf4 <.L3^B1>

00000b12 <.L7^B1>:
 b12:	86 95       	lsr	r24
 b14:	71 05       	cpc	r23, r1
 b16:	61 05       	cpc	r22, r1

00000b18 <.L8^B1>:
 b18:	08 94       	sec
 b1a:	08 95       	ret

00000b1c <__fp_zero>:
 b1c:	e8 94       	clt

00000b1e <__fp_szero>:
 b1e:	bb 27       	eor	r27, r27
 b20:	66 27       	eor	r22, r22
 b22:	77 27       	eor	r23, r23
 b24:	cb 01       	movw	r24, r22
 b26:	97 f9       	bld	r25, 7
 b28:	08 95       	ret

00000b2a <__mulsf3>:
 b2a:	0e 94 a8 05 	call	0xb50	; 0xb50 <__mulsf3x>
 b2e:	0c 94 5b 05 	jmp	0xab6	; 0xab6 <__fp_round>

00000b32 <.L^B1>:
 b32:	0e 94 4d 05 	call	0xa9a	; 0xa9a <__fp_pscA>
 b36:	38 f0       	brcs	.+14     	; 0xb46 <.L1^B1>
 b38:	0e 94 54 05 	call	0xaa8	; 0xaa8 <__fp_pscB>
 b3c:	20 f0       	brcs	.+8      	; 0xb46 <.L1^B1>
 b3e:	95 23       	and	r25, r21
 b40:	11 f0       	breq	.+4      	; 0xb46 <.L1^B1>
 b42:	0c 94 44 05 	jmp	0xa88	; 0xa88 <__fp_inf>

00000b46 <.L1^B1>:
 b46:	0c 94 4a 05 	jmp	0xa94	; 0xa94 <__fp_nan>

00000b4a <.L2^B1>:
 b4a:	11 24       	eor	r1, r1
 b4c:	0c 94 8f 05 	jmp	0xb1e	; 0xb1e <__fp_szero>

00000b50 <__mulsf3x>:
 b50:	0e 94 6c 05 	call	0xad8	; 0xad8 <__fp_split3>
 b54:	70 f3       	brcs	.-36     	; 0xb32 <.L^B1>

00000b56 <__mulsf3_pse>:
 b56:	95 9f       	mul	r25, r21
 b58:	c1 f3       	breq	.-16     	; 0xb4a <.L2^B1>
 b5a:	95 0f       	add	r25, r21
 b5c:	50 e0       	ldi	r21, 0x00	; 0
 b5e:	55 1f       	adc	r21, r21
 b60:	62 9f       	mul	r22, r18
 b62:	f0 01       	movw	r30, r0
 b64:	72 9f       	mul	r23, r18
 b66:	bb 27       	eor	r27, r27
 b68:	f0 0d       	add	r31, r0
 b6a:	b1 1d       	adc	r27, r1
 b6c:	63 9f       	mul	r22, r19
 b6e:	aa 27       	eor	r26, r26
 b70:	f0 0d       	add	r31, r0
 b72:	b1 1d       	adc	r27, r1
 b74:	aa 1f       	adc	r26, r26
 b76:	64 9f       	mul	r22, r20
 b78:	66 27       	eor	r22, r22
 b7a:	b0 0d       	add	r27, r0
 b7c:	a1 1d       	adc	r26, r1
 b7e:	66 1f       	adc	r22, r22
 b80:	82 9f       	mul	r24, r18
 b82:	22 27       	eor	r18, r18
 b84:	b0 0d       	add	r27, r0
 b86:	a1 1d       	adc	r26, r1
 b88:	62 1f       	adc	r22, r18
 b8a:	73 9f       	mul	r23, r19
 b8c:	b0 0d       	add	r27, r0
 b8e:	a1 1d       	adc	r26, r1
 b90:	62 1f       	adc	r22, r18
 b92:	83 9f       	mul	r24, r19
 b94:	a0 0d       	add	r26, r0
 b96:	61 1d       	adc	r22, r1
 b98:	22 1f       	adc	r18, r18
 b9a:	74 9f       	mul	r23, r20
 b9c:	33 27       	eor	r19, r19
 b9e:	a0 0d       	add	r26, r0
 ba0:	61 1d       	adc	r22, r1
 ba2:	23 1f       	adc	r18, r19
 ba4:	84 9f       	mul	r24, r20
 ba6:	60 0d       	add	r22, r0
 ba8:	21 1d       	adc	r18, r1
 baa:	82 2f       	mov	r24, r18
 bac:	76 2f       	mov	r23, r22
 bae:	6a 2f       	mov	r22, r26
 bb0:	11 24       	eor	r1, r1
 bb2:	9f 57       	subi	r25, 0x7F	; 127
 bb4:	50 40       	sbci	r21, 0x00	; 0
 bb6:	9a f0       	brmi	.+38     	; 0xbde <.L13^B1>
 bb8:	f1 f0       	breq	.+60     	; 0xbf6 <.L15^B1>

00000bba <.L10^B1>:
 bba:	88 23       	and	r24, r24
 bbc:	4a f0       	brmi	.+18     	; 0xbd0 <.L11^B1>
 bbe:	ee 0f       	add	r30, r30
 bc0:	ff 1f       	adc	r31, r31
 bc2:	bb 1f       	adc	r27, r27
 bc4:	66 1f       	adc	r22, r22
 bc6:	77 1f       	adc	r23, r23
 bc8:	88 1f       	adc	r24, r24
 bca:	91 50       	subi	r25, 0x01	; 1
 bcc:	50 40       	sbci	r21, 0x00	; 0
 bce:	a9 f7       	brne	.-22     	; 0xbba <.L10^B1>

00000bd0 <.L11^B1>:
 bd0:	9e 3f       	cpi	r25, 0xFE	; 254
 bd2:	51 05       	cpc	r21, r1
 bd4:	80 f0       	brcs	.+32     	; 0xbf6 <.L15^B1>
 bd6:	0c 94 44 05 	jmp	0xa88	; 0xa88 <__fp_inf>

00000bda <.L12^B1>:
 bda:	0c 94 8f 05 	jmp	0xb1e	; 0xb1e <__fp_szero>

00000bde <.L13^B1>:
 bde:	5f 3f       	cpi	r21, 0xFF	; 255
 be0:	e4 f3       	brlt	.-8      	; 0xbda <.L12^B1>
 be2:	98 3e       	cpi	r25, 0xE8	; 232
 be4:	d4 f3       	brlt	.-12     	; 0xbda <.L12^B1>

00000be6 <.L14^B1>:
 be6:	86 95       	lsr	r24
 be8:	77 95       	ror	r23
 bea:	67 95       	ror	r22
 bec:	b7 95       	ror	r27
 bee:	f7 95       	ror	r31
 bf0:	e7 95       	ror	r30
 bf2:	9f 5f       	subi	r25, 0xFF	; 255
 bf4:	c1 f7       	brne	.-16     	; 0xbe6 <.L14^B1>

00000bf6 <.L15^B1>:
 bf6:	fe 2b       	or	r31, r30
 bf8:	88 0f       	add	r24, r24
 bfa:	91 1d       	adc	r25, r1
 bfc:	96 95       	lsr	r25
 bfe:	87 95       	ror	r24
 c00:	97 f9       	bld	r25, 7
 c02:	08 95       	ret

00000c04 <_exit>:
 c04:	f8 94       	cli

00000c06 <__stop_program>:
 c06:	ff cf       	rjmp	.-2      	; 0xc06 <__stop_program>
