
bin\Debug\AGV_PROJECT_B2.elf:     file format elf32-avr

Sections:
Idx Name          Size      VMA       LMA       File off  Algn
  0 .data         0000000c  00800200  000016dc  00001790  2**0
                  CONTENTS, ALLOC, LOAD, DATA
  1 .text         000016dc  00000000  00000000  000000b4  2**1
                  CONTENTS, ALLOC, LOAD, READONLY, CODE
  2 .bss          00000012  0080020c  0080020c  0000179c  2**0
                  ALLOC
  3 .fuse         00000003  00820000  00820000  0000179c  2**0
                  CONTENTS, ALLOC, LOAD, DATA
  4 .comment      00000012  00000000  00000000  0000179f  2**0
                  CONTENTS, READONLY
  5 .note.gnu.avr.deviceinfo 00000040  00000000  00000000  000017b4  2**2
                  CONTENTS, READONLY, OCTETS
  6 .debug_aranges 000001b8  00000000  00000000  000017f8  2**3
                  CONTENTS, READONLY, DEBUGGING, OCTETS
  7 .debug_info   000026c7  00000000  00000000  000019b0  2**0
                  CONTENTS, READONLY, DEBUGGING, OCTETS
  8 .debug_abbrev 000014ef  00000000  00000000  00004077  2**0
                  CONTENTS, READONLY, DEBUGGING, OCTETS
  9 .debug_line   000029e8  00000000  00000000  00005566  2**0
                  CONTENTS, READONLY, DEBUGGING, OCTETS
 10 .debug_frame  00000524  00000000  00000000  00007f50  2**2
                  CONTENTS, READONLY, DEBUGGING, OCTETS
 11 .debug_str    000008ee  00000000  00000000  00008474  2**0
                  CONTENTS, READONLY, DEBUGGING, OCTETS
 12 .debug_line_str 00000260  00000000  00000000  00008d62  2**0
                  CONTENTS, READONLY, DEBUGGING, OCTETS
 13 .debug_loclists 000009b3  00000000  00000000  00008fc2  2**0
                  CONTENTS, READONLY, DEBUGGING, OCTETS
 14 .debug_rnglists 00000035  00000000  00000000  00009975  2**0
                  CONTENTS, READONLY, DEBUGGING, OCTETS

Disassembly of section .text:

00000000 <__vectors>:
       0:	0c 94 72 00 	jmp	0xe4	; 0xe4 <__ctors_end>
       4:	0c 94 93 00 	jmp	0x126	; 0x126 <__bad_interrupt>
       8:	0c 94 93 00 	jmp	0x126	; 0x126 <__bad_interrupt>
       c:	0c 94 93 00 	jmp	0x126	; 0x126 <__bad_interrupt>
      10:	0c 94 93 00 	jmp	0x126	; 0x126 <__bad_interrupt>
      14:	0c 94 03 03 	jmp	0x606	; 0x606 <__vector_5>
      18:	0c 94 8a 03 	jmp	0x714	; 0x714 <__vector_6>
      1c:	0c 94 93 00 	jmp	0x126	; 0x126 <__bad_interrupt>
      20:	0c 94 93 00 	jmp	0x126	; 0x126 <__bad_interrupt>
      24:	0c 94 93 00 	jmp	0x126	; 0x126 <__bad_interrupt>
      28:	0c 94 93 00 	jmp	0x126	; 0x126 <__bad_interrupt>
      2c:	0c 94 93 00 	jmp	0x126	; 0x126 <__bad_interrupt>
      30:	0c 94 93 00 	jmp	0x126	; 0x126 <__bad_interrupt>
      34:	0c 94 93 00 	jmp	0x126	; 0x126 <__bad_interrupt>
      38:	0c 94 93 00 	jmp	0x126	; 0x126 <__bad_interrupt>
      3c:	0c 94 93 00 	jmp	0x126	; 0x126 <__bad_interrupt>
      40:	0c 94 93 00 	jmp	0x126	; 0x126 <__bad_interrupt>
      44:	0c 94 93 00 	jmp	0x126	; 0x126 <__bad_interrupt>
      48:	0c 94 93 00 	jmp	0x126	; 0x126 <__bad_interrupt>
      4c:	0c 94 93 00 	jmp	0x126	; 0x126 <__bad_interrupt>
      50:	0c 94 93 00 	jmp	0x126	; 0x126 <__bad_interrupt>
      54:	0c 94 93 00 	jmp	0x126	; 0x126 <__bad_interrupt>
      58:	0c 94 93 00 	jmp	0x126	; 0x126 <__bad_interrupt>
      5c:	0c 94 93 00 	jmp	0x126	; 0x126 <__bad_interrupt>
      60:	0c 94 93 00 	jmp	0x126	; 0x126 <__bad_interrupt>
      64:	0c 94 93 00 	jmp	0x126	; 0x126 <__bad_interrupt>
      68:	0c 94 93 00 	jmp	0x126	; 0x126 <__bad_interrupt>
      6c:	0c 94 93 00 	jmp	0x126	; 0x126 <__bad_interrupt>
      70:	0c 94 93 00 	jmp	0x126	; 0x126 <__bad_interrupt>
      74:	0c 94 93 00 	jmp	0x126	; 0x126 <__bad_interrupt>
      78:	0c 94 93 00 	jmp	0x126	; 0x126 <__bad_interrupt>
      7c:	0c 94 93 00 	jmp	0x126	; 0x126 <__bad_interrupt>
      80:	0c 94 93 00 	jmp	0x126	; 0x126 <__bad_interrupt>
      84:	0c 94 93 00 	jmp	0x126	; 0x126 <__bad_interrupt>
      88:	0c 94 93 00 	jmp	0x126	; 0x126 <__bad_interrupt>
      8c:	0c 94 93 00 	jmp	0x126	; 0x126 <__bad_interrupt>
      90:	0c 94 93 00 	jmp	0x126	; 0x126 <__bad_interrupt>
      94:	0c 94 93 00 	jmp	0x126	; 0x126 <__bad_interrupt>
      98:	0c 94 93 00 	jmp	0x126	; 0x126 <__bad_interrupt>
      9c:	0c 94 93 00 	jmp	0x126	; 0x126 <__bad_interrupt>
      a0:	0c 94 93 00 	jmp	0x126	; 0x126 <__bad_interrupt>
      a4:	0c 94 93 00 	jmp	0x126	; 0x126 <__bad_interrupt>
      a8:	0c 94 93 00 	jmp	0x126	; 0x126 <__bad_interrupt>
      ac:	0c 94 93 00 	jmp	0x126	; 0x126 <__bad_interrupt>
      b0:	0c 94 93 00 	jmp	0x126	; 0x126 <__bad_interrupt>
      b4:	0c 94 93 00 	jmp	0x126	; 0x126 <__bad_interrupt>
      b8:	0c 94 93 00 	jmp	0x126	; 0x126 <__bad_interrupt>
      bc:	0c 94 93 00 	jmp	0x126	; 0x126 <__bad_interrupt>
      c0:	0c 94 93 00 	jmp	0x126	; 0x126 <__bad_interrupt>
      c4:	0c 94 93 00 	jmp	0x126	; 0x126 <__bad_interrupt>
      c8:	0c 94 93 00 	jmp	0x126	; 0x126 <__bad_interrupt>
      cc:	0c 94 93 00 	jmp	0x126	; 0x126 <__bad_interrupt>
      d0:	0c 94 93 00 	jmp	0x126	; 0x126 <__bad_interrupt>
      d4:	0c 94 93 00 	jmp	0x126	; 0x126 <__bad_interrupt>
      d8:	0c 94 93 00 	jmp	0x126	; 0x126 <__bad_interrupt>
      dc:	0c 94 93 00 	jmp	0x126	; 0x126 <__bad_interrupt>
      e0:	0c 94 93 00 	jmp	0x126	; 0x126 <__bad_interrupt>

000000e4 <__ctors_end>:
      e4:	11 24       	eor	r1, r1
      e6:	1f be       	out	0x3f, r1	; 63
      e8:	cf ef       	ldi	r28, 0xFF	; 255
      ea:	d1 e2       	ldi	r29, 0x21	; 33
      ec:	de bf       	out	0x3e, r29	; 62
      ee:	cd bf       	out	0x3d, r28	; 61
      f0:	00 e0       	ldi	r16, 0x00	; 0
      f2:	0c bf       	out	0x3c, r16	; 60

000000f4 <__do_copy_data>:
      f4:	12 e0       	ldi	r17, 0x02	; 2

000000f6 <.Loc.1>:
      f6:	a0 e0       	ldi	r26, 0x00	; 0

000000f8 <.Loc.2>:
      f8:	b2 e0       	ldi	r27, 0x02	; 2

000000fa <.Loc.3>:
      fa:	ec ed       	ldi	r30, 0xDC	; 220

000000fc <.Loc.4>:
      fc:	f6 e1       	ldi	r31, 0x16	; 22

000000fe <.Loc.5>:
      fe:	00 e0       	ldi	r16, 0x00	; 0

00000100 <.Loc.6>:
     100:	0b bf       	out	0x3b, r16	; 59

00000102 <.Loc.7>:
     102:	02 c0       	rjmp	.+4      	; 0x108 <.L__do_copy_data_start>

00000104 <.L__do_copy_data_loop>:
     104:	07 90       	elpm	r0, Z+

00000106 <.Loc.9>:
     106:	0d 92       	st	X+, r0

00000108 <.L__do_copy_data_start>:
     108:	ac 30       	cpi	r26, 0x0C	; 12

0000010a <.Loc.11>:
     10a:	b1 07       	cpc	r27, r17

0000010c <.Loc.12>:
     10c:	d9 f7       	brne	.-10     	; 0x104 <.L__do_copy_data_loop>

0000010e <__do_clear_bss>:
     10e:	22 e0       	ldi	r18, 0x02	; 2

00000110 <.Loc.1>:
     110:	ac e0       	ldi	r26, 0x0C	; 12

00000112 <.Loc.2>:
     112:	b2 e0       	ldi	r27, 0x02	; 2

00000114 <.Loc.3>:
     114:	01 c0       	rjmp	.+2      	; 0x118 <.Loc.5>

00000116 <.Loc.4>:
     116:	1d 92       	st	X+, r1

00000118 <.Loc.5>:
     118:	ae 31       	cpi	r26, 0x1E	; 30

0000011a <.Loc.6>:
     11a:	b2 07       	cpc	r27, r18

0000011c <.Loc.7>:
     11c:	e1 f7       	brne	.-8      	; 0x116 <.Loc.4>

0000011e <L0^A>:
     11e:	0e 94 57 01 	call	0x2ae	; 0x2ae <main>
     122:	0c 94 6c 0b 	jmp	0x16d8	; 0x16d8 <_exit>

00000126 <__bad_interrupt>:
     126:	0c 94 00 00 	jmp	0	; 0x0 <__vectors>

0000012a <init_ultrasoon_sensor>:


void init_ultrasoon_sensor(void)
{
    //ULTRASOON Echo als INPUT configureren
    ULTRASOON_ECHO_R_DDR &= ~(1 << ULTRASOON_ECHO_R);
     12a:	3f 98       	cbi	0x07, 7	; 7

0000012c <.Loc.3>:
    ULTRASOON_ECHO_L_DDR &= ~(1 << ULTRASOON_ECHO_L);
     12c:	0e 98       	cbi	0x01, 6	; 1

0000012e <.Loc.5>:

    //ULTRASOON Trigger als OUTPUT configureren
    ULTRASOON_TRIGGER_R_DDR |= (1 << ULTRASOON_TRIGGER_R);
     12e:	3e 9a       	sbi	0x07, 6	; 7

00000130 <.Loc.7>:
    ULTRASOON_TRIGGER_L_DDR |= (1 << ULTRASOON_TRIGGER_L);
     130:	0f 9a       	sbi	0x01, 7	; 1

00000132 <.Loc.10>:

    //ULTRASOON Echo laagzetten
    ULTRASOON_TRIGGER_R_PORT &= ~(1 << ULTRASOON_ECHO_R);
     132:	47 98       	cbi	0x08, 7	; 8

00000134 <.Loc.11>:
    ULTRASOON_TRIGGER_L_PORT &= ~(1 << ULTRASOON_ECHO_L);
     134:	16 98       	cbi	0x02, 6	; 2

00000136 <.Loc.13>:
}
     136:	08 95       	ret

00000138 <init_infrarood_sensor>:

void init_infrarood_sensor(void)
{

    //INFRAROOD AGV als input configureren
    INFRAROOD_AGV_R_DDR &= ~(1 << INFRAROOD_AGV_R);
     138:	52 98       	cbi	0x0a, 2	; 10

0000013a <.Loc.17>:
    INFRAROOD_AGV_L_DDR &= ~(1 << INFRAROOD_AGV_L);
     13a:	51 98       	cbi	0x0a, 1	; 10

0000013c <.Loc.19>:

    // Infrarood module
    INFRAROOD_MODULE_R_DDR &= ~(1 << INFRAROOD_MODULE_R);
     13c:	6d 98       	cbi	0x0d, 5	; 13

0000013e <.Loc.21>:
    INFRAROOD_MODULE_ENABLE_R_DDR |= (1 << INFRAROOD_MODULE_ENABLE_R);
     13e:	3d 9a       	sbi	0x07, 5	; 7

00000140 <.Loc.23>:
    INFRAROOD_MODULE_L_DDR &= ~(1 << INFRAROOD_MODULE_L);
     140:	6c 98       	cbi	0x0d, 4	; 13

00000142 <.Loc.25>:
    INFRAROOD_MODULE_ENABLE_L_DDR |= (1 << INFRAROOD_MODULE_ENABLE_L);
     142:	3c 9a       	sbi	0x07, 4	; 7

00000144 <.Loc.27>:

    // Infrarood enable uitzetten
    INFRAROOD_MODULE_ENABLE_R_PORT &= ~(1 << INFRAROOD_MODULE_ENABLE_R);
     144:	45 98       	cbi	0x08, 5	; 8

00000146 <.Loc.29>:
    INFRAROOD_MODULE_ENABLE_L_PORT &= ~(1 << INFRAROOD_MODULE_ENABLE_L);
     146:	44 98       	cbi	0x08, 4	; 8

00000148 <.Loc.31>:

    //interrupt Infraroodsensoren module, falling edge
    EICRB |= (1 << ISC41);
     148:	ea e6       	ldi	r30, 0x6A	; 106
     14a:	f0 e0       	ldi	r31, 0x00	; 0
     14c:	80 81       	ld	r24, Z

0000014e <.Loc.32>:
     14e:	82 60       	ori	r24, 0x02	; 2
     150:	80 83       	st	Z, r24

00000152 <.Loc.33>:
    EICRB &= ~(1 << ISC40);
     152:	80 81       	ld	r24, Z
     154:	8e 7f       	andi	r24, 0xFE	; 254
     156:	80 83       	st	Z, r24

00000158 <.Loc.35>:
    EICRB |= (1 << ISC51);
     158:	80 81       	ld	r24, Z

0000015a <.Loc.36>:
     15a:	88 60       	ori	r24, 0x08	; 8
     15c:	80 83       	st	Z, r24

0000015e <.Loc.37>:
    EICRB &= ~(1 << ISC50);
     15e:	80 81       	ld	r24, Z
     160:	8b 7f       	andi	r24, 0xFB	; 251
     162:	80 83       	st	Z, r24

00000164 <.Loc.39>:

    EIMSK |= (1 << INT4);
     164:	ec 9a       	sbi	0x1d, 4	; 29

00000166 <.Loc.41>:
    EIMSK |= (1 << INT5);
     166:	ed 9a       	sbi	0x1d, 5	; 29

00000168 <.Loc.43>:

    //Timer voor 2 sec stilstaan bij blok detectie
    TCCR0B |= (1 << CS02);
     168:	85 b5       	in	r24, 0x25	; 37

0000016a <.Loc.44>:
     16a:	84 60       	ori	r24, 0x04	; 4
     16c:	85 bd       	out	0x25, r24	; 37

0000016e <.Loc.45>:
    TCCR0B &= ~(1 << CS01);
     16e:	85 b5       	in	r24, 0x25	; 37
     170:	8d 7f       	andi	r24, 0xFD	; 253
     172:	85 bd       	out	0x25, r24	; 37

00000174 <.Loc.47>:
    TCCR0B |= (1 << CS00);
     174:	85 b5       	in	r24, 0x25	; 37

00000176 <.Loc.48>:
     176:	81 60       	ori	r24, 0x01	; 1
     178:	85 bd       	out	0x25, r24	; 37

0000017a <.Loc.49>:

    TCCR1A = 0;
     17a:	10 92 80 00 	sts	0x0080, r1	; 0x800080 <__TEXT_REGION_LENGTH__+0x700080>

0000017e <.Loc.51>:
    TCCR1B |= (1 << CS12)|(0 << CS11)|(0 << CS10);
     17e:	e1 e8       	ldi	r30, 0x81	; 129
     180:	f0 e0       	ldi	r31, 0x00	; 0
     182:	80 81       	ld	r24, Z

00000184 <.Loc.52>:
     184:	84 60       	ori	r24, 0x04	; 4
     186:	80 83       	st	Z, r24

00000188 <.Loc.53>:
}
     188:	08 95       	ret

0000018a <init_knopjes>:

void init_knopjes(void)
{
    //KNOPJES als input configuren
    KNOP_1_DDR &= ~(1 << KNOP_1);
     18a:	08 98       	cbi	0x01, 0	; 1

0000018c <.Loc.57>:
    KNOP_2_DDR &= ~(1 << KNOP_2);
     18c:	09 98       	cbi	0x01, 1	; 1

0000018e <.Loc.59>:
    KNOP_3_DDR &= ~(1 << KNOP_3);
     18e:	0a 98       	cbi	0x01, 2	; 1

00000190 <.Loc.61>:
    KNOP_4_DDR &= ~(1 << KNOP_4);
     190:	0b 98       	cbi	0x01, 3	; 1

00000192 <.Loc.63>:
    KNOP_5_DDR &= ~(1 << KNOP_5);
     192:	0c 98       	cbi	0x01, 4	; 1

00000194 <.Loc.65>:
    KNOP_6_DDR &= ~(1 << KNOP_6);
     194:	0d 98       	cbi	0x01, 5	; 1

00000196 <.Loc.67>:

    //KNOPJES pull-up aanzetten
    KNOP_1_PORT |= (1 << KNOP_1);
     196:	10 9a       	sbi	0x02, 0	; 2

00000198 <.Loc.69>:
    KNOP_2_PORT |= (1 << KNOP_2);
     198:	11 9a       	sbi	0x02, 1	; 2

0000019a <.Loc.71>:
    KNOP_3_PORT |= (1 << KNOP_3);
     19a:	12 9a       	sbi	0x02, 2	; 2

0000019c <.Loc.73>:
    KNOP_4_PORT |= (1 << KNOP_4);
     19c:	13 9a       	sbi	0x02, 3	; 2

0000019e <.Loc.75>:
    KNOP_5_PORT |= (1 << KNOP_5);
     19e:	14 9a       	sbi	0x02, 4	; 2

000001a0 <.Loc.77>:
    KNOP_6_PORT |= (1 << KNOP_6);
     1a0:	15 9a       	sbi	0x02, 5	; 2

000001a2 <.Loc.79>:
}
     1a2:	08 95       	ret

000001a4 <init_led>:

void init_led(void)
{
    //LED als output configuren
    LED_1_DDR |= (1 << LED_1);
     1a4:	22 9a       	sbi	0x04, 2	; 4

000001a6 <.Loc.83>:
    LED_2_DDR |= (1 << LED_2);
     1a6:	21 9a       	sbi	0x04, 1	; 4

000001a8 <.Loc.85>:

    //LED hoog zetten
    LED_1_PORT |= (1 << LED_1);
     1a8:	2a 9a       	sbi	0x05, 2	; 5

000001aa <.Loc.87>:
    LED_2_PORT |= (1 << LED_2);
     1aa:	29 9a       	sbi	0x05, 1	; 5

000001ac <.Loc.89>:
}
     1ac:	08 95       	ret

000001ae <init_h_brug_dual>:

void init_h_brug_dual(void)
{
    //PWM als output configureren
    PWM_R_DDR |= (1 << PWM_R);
     1ae:	e1 e0       	ldi	r30, 0x01	; 1
     1b0:	f1 e0       	ldi	r31, 0x01	; 1
     1b2:	80 81       	ld	r24, Z

000001b4 <.Loc.92>:
     1b4:	88 60       	ori	r24, 0x08	; 8
     1b6:	80 83       	st	Z, r24

000001b8 <.Loc.93>:
    PWM_L_DDR |= (1 << PWM_L);
     1b8:	aa e0       	ldi	r26, 0x0A	; 10
     1ba:	b1 e0       	ldi	r27, 0x01	; 1
     1bc:	8c 91       	ld	r24, X

000001be <.Loc.94>:
     1be:	88 60       	ori	r24, 0x08	; 8
     1c0:	8c 93       	st	X, r24

000001c2 <.Loc.95>:

    //PWM laagzetten
    PWM_R_PORT &= ~(1 << PWM_R);
     1c2:	e2 e0       	ldi	r30, 0x02	; 2
     1c4:	f1 e0       	ldi	r31, 0x01	; 1
     1c6:	80 81       	ld	r24, Z
     1c8:	87 7f       	andi	r24, 0xF7	; 247
     1ca:	80 83       	st	Z, r24

000001cc <.Loc.97>:
    PWM_L_PORT &= ~(1 << PWM_L);
     1cc:	eb e0       	ldi	r30, 0x0B	; 11
     1ce:	f1 e0       	ldi	r31, 0x01	; 1
     1d0:	80 81       	ld	r24, Z
     1d2:	87 7f       	andi	r24, 0xF7	; 247
     1d4:	80 83       	st	Z, r24

000001d6 <.Loc.99>:

    //IN als output
    PWM_IN_1_DDR |= (1 << PWM_IN_1); // IN 1 --> motor A = rechts
     1d6:	8c 91       	ld	r24, X

000001d8 <.Loc.100>:
     1d8:	80 64       	ori	r24, 0x40	; 64
     1da:	8c 93       	st	X, r24

000001dc <.Loc.101>:
    PWM_IN_2_DDR |= (1 << PWM_IN_2); // IN 2 --> motor A = rechts
     1dc:	8c 91       	ld	r24, X

000001de <.Loc.102>:
     1de:	80 61       	ori	r24, 0x10	; 16
     1e0:	8c 93       	st	X, r24

000001e2 <.Loc.103>:
    PWM_IN_3_DDR |= (1 << PWM_IN_3); // IN 3 --> motor B = links
     1e2:	8c 91       	ld	r24, X

000001e4 <.Loc.104>:
     1e4:	84 60       	ori	r24, 0x04	; 4
     1e6:	8c 93       	st	X, r24

000001e8 <.Loc.105>:
    PWM_IN_4_DDR |= (1 << PWM_IN_4); // IN 4 --> motor B = links
     1e8:	8c 91       	ld	r24, X

000001ea <.Loc.106>:
     1ea:	81 60       	ori	r24, 0x01	; 1
     1ec:	8c 93       	st	X, r24

000001ee <.Loc.107>:

    //IN laagzetten
    PWM_IN_1_PORT &= ~(1 << PWM_IN_1); // IN 1 --> motor A = rechts
     1ee:	80 81       	ld	r24, Z
     1f0:	8f 7b       	andi	r24, 0xBF	; 191
     1f2:	80 83       	st	Z, r24

000001f4 <.Loc.109>:
    PWM_IN_2_PORT &= ~(1 << PWM_IN_2); // IN 2 --> motor A = rechts
     1f4:	80 81       	ld	r24, Z
     1f6:	8f 7e       	andi	r24, 0xEF	; 239
     1f8:	80 83       	st	Z, r24

000001fa <.Loc.111>:
    PWM_IN_3_PORT &= ~(1 << PWM_IN_3); // IN 3 --> motor B = links
     1fa:	80 81       	ld	r24, Z
     1fc:	8b 7f       	andi	r24, 0xFB	; 251
     1fe:	80 83       	st	Z, r24

00000200 <.Loc.113>:
    PWM_IN_4_PORT &= ~(1 << PWM_IN_4); // IN 4 --> motor B = links
     200:	80 81       	ld	r24, Z
     202:	8e 7f       	andi	r24, 0xFE	; 254
     204:	80 83       	st	Z, r24

00000206 <.Loc.115>:
}
     206:	08 95       	ret

00000208 <init_noodstop>:

void init_noodstop(void)
{
    //NOODSTOP als input configureren
    NOODSTOP_DDR &= ~(1 << NOODSTOP);
     208:	50 98       	cbi	0x0a, 0	; 10

0000020a <.Loc.119>:
}
     20a:	08 95       	ret

0000020c <init_timer_PWM>:

void init_timer_PWM(void)
{
    //PWM L instellen
    ICR5 = TOP_VALUE;
     20c:	20 e4       	ldi	r18, 0x40	; 64
     20e:	3c e9       	ldi	r19, 0x9C	; 156
     210:	30 93 27 01 	sts	0x0127, r19	; 0x800127 <__TEXT_REGION_LENGTH__+0x700127>
     214:	20 93 26 01 	sts	0x0126, r18	; 0x800126 <__TEXT_REGION_LENGTH__+0x700126>

00000218 <.Loc.123>:
    TCCR5A = (1 << WGM51) | (0 << WGM50) | (1 << COM5A1) | (0 << COM5A0);
     218:	92 e8       	ldi	r25, 0x82	; 130
     21a:	90 93 20 01 	sts	0x0120, r25	; 0x800120 <__TEXT_REGION_LENGTH__+0x700120>

0000021e <.Loc.125>:
    TCCR5B = (1 << WGM53) | (1 << WGM52) | (0 << CS52) | (1 << CS51) | (0 << CS50);
     21e:	8a e1       	ldi	r24, 0x1A	; 26
     220:	80 93 21 01 	sts	0x0121, r24	; 0x800121 <__TEXT_REGION_LENGTH__+0x700121>

00000224 <.Loc.127>:

    //PWM R instellen
    ICR4 = TOP_VALUE;
     224:	30 93 a7 00 	sts	0x00A7, r19	; 0x8000a7 <__TEXT_REGION_LENGTH__+0x7000a7>
     228:	20 93 a6 00 	sts	0x00A6, r18	; 0x8000a6 <__TEXT_REGION_LENGTH__+0x7000a6>

0000022c <.Loc.129>:
    TCCR4A = (1 << WGM41) | (0 << WGM40) | (1 << COM4A1) | (0 << COM4A0);
     22c:	90 93 a0 00 	sts	0x00A0, r25	; 0x8000a0 <__TEXT_REGION_LENGTH__+0x7000a0>

00000230 <.Loc.131>:
    TCCR4B = (1 << WGM43) | (1 << WGM42) | (0 << CS42) | (1 << CS41) | (0 << CS40);
     230:	80 93 a1 00 	sts	0x00A1, r24	; 0x8000a1 <__TEXT_REGION_LENGTH__+0x7000a1>

00000234 <.Loc.133>:
}
     234:	08 95       	ret

00000236 <init_display>:

void init_display(void) {
    // Stel pinnen in als output
    DDRG |= (1 << PG1) | (1 << PG0);
     236:	83 b3       	in	r24, 0x13	; 19

00000238 <.Loc.136>:
     238:	83 60       	ori	r24, 0x03	; 3
     23a:	83 bb       	out	0x13, r24	; 19

0000023c <.Loc.137>:

    // Initialiseer display: Commando 0x8A zet display AAN en helderheid op een gemiddeld niveau
    tm_start();
     23c:	0e 94 f4 01 	call	0x3e8	; 0x3e8 <tm_start>

00000240 <.LVL0>:
    send_byte(0x8A);
     240:	8a e8       	ldi	r24, 0x8A	; 138
     242:	0e 94 c9 01 	call	0x392	; 0x392 <send_byte>

00000246 <.LVL1>:
    tm_stop();
     246:	0e 94 06 02 	call	0x40c	; 0x40c <tm_stop>

0000024a <.LVL2>:
    //start met 0 op het display
    tm1637_showNumber(0);
     24a:	80 e0       	ldi	r24, 0x00	; 0
     24c:	90 e0       	ldi	r25, 0x00	; 0
     24e:	0e 94 17 02 	call	0x42e	; 0x42e <tm1637_showNumber>

00000252 <.LVL3>:
}
     252:	08 95       	ret

00000254 <init_motor>:
void init_motor(void)
{
    //h-brug instellen op vooruit rijden
    motor_config(VOORUIT, LINKS);
     254:	61 e0       	ldi	r22, 0x01	; 1
     256:	70 e0       	ldi	r23, 0x00	; 0
     258:	80 e0       	ldi	r24, 0x00	; 0
     25a:	90 e0       	ldi	r25, 0x00	; 0
     25c:	0e 94 71 04 	call	0x8e2	; 0x8e2 <motor_config>

00000260 <.LVL4>:
    motor_config(VOORUIT, RECHTS);
     260:	60 e0       	ldi	r22, 0x00	; 0
     262:	70 e0       	ldi	r23, 0x00	; 0
     264:	80 e0       	ldi	r24, 0x00	; 0
     266:	90 e0       	ldi	r25, 0x00	; 0
     268:	0e 94 71 04 	call	0x8e2	; 0x8e2 <motor_config>

0000026c <.LVL5>:

    //motoren uitzetten
    motor_L(1.0);
     26c:	60 e0       	ldi	r22, 0x00	; 0
     26e:	70 e0       	ldi	r23, 0x00	; 0
     270:	80 e8       	ldi	r24, 0x80	; 128
     272:	9f e3       	ldi	r25, 0x3F	; 63
     274:	0e 94 41 04 	call	0x882	; 0x882 <motor_L>

00000278 <.LVL6>:
    motor_R(1.0);
     278:	60 e0       	ldi	r22, 0x00	; 0
     27a:	70 e0       	ldi	r23, 0x00	; 0
     27c:	80 e8       	ldi	r24, 0x80	; 128
     27e:	9f e3       	ldi	r25, 0x3F	; 63
     280:	0e 94 11 04 	call	0x822	; 0x822 <motor_R>

00000284 <.LVL7>:
}
     284:	08 95       	ret

00000286 <init_function>:

void init_function(void) //Alle initialisatie functies worden hier aangeroepen
{
    init_ultrasoon_sensor();
     286:	0e 94 95 00 	call	0x12a	; 0x12a <init_ultrasoon_sensor>

0000028a <.LVL8>:
    init_infrarood_sensor();
     28a:	0e 94 9c 00 	call	0x138	; 0x138 <init_infrarood_sensor>

0000028e <.LVL9>:
    init_knopjes();
     28e:	0e 94 c5 00 	call	0x18a	; 0x18a <init_knopjes>

00000292 <.LVL10>:
    init_led();
     292:	0e 94 d2 00 	call	0x1a4	; 0x1a4 <init_led>

00000296 <.LVL11>:
    init_h_brug_dual();
     296:	0e 94 d7 00 	call	0x1ae	; 0x1ae <init_h_brug_dual>

0000029a <.LVL12>:
    init_noodstop();
     29a:	0e 94 04 01 	call	0x208	; 0x208 <init_noodstop>

0000029e <.LVL13>:
    init_timer_PWM();
     29e:	0e 94 06 01 	call	0x20c	; 0x20c <init_timer_PWM>

000002a2 <.LVL14>:
    init_display();
     2a2:	0e 94 1b 01 	call	0x236	; 0x236 <init_display>

000002a6 <.LVL15>:
    init_motor();
     2a6:	0e 94 2a 01 	call	0x254	; 0x254 <init_motor>

000002aa <.LVL16>:
    sei();
     2aa:	78 94       	sei

000002ac <.Loc.159>:
}
     2ac:	08 95       	ret

000002ae <main>:


int main(void)
{
    //initialisatie
    init_function();
     2ae:	0e 94 43 01 	call	0x286	; 0x286 <init_function>

000002b2 <.LVL0>:

    //programma kiezen door op een van de knoppen AGV te drukken en hem dan te starten
    switch(programma_keuze())
     2b2:	0e 94 b6 07 	call	0xf6c	; 0xf6c <programma_keuze>

000002b6 <.LVL1>:
     2b6:	28 2f       	mov	r18, r24
     2b8:	39 2f       	mov	r19, r25

000002ba <.Loc.4>:
     2ba:	23 30       	cpi	r18, 0x03	; 3
     2bc:	31 05       	cpc	r19, r1
     2be:	09 f4       	brne	.+2      	; 0x2c2 <.Lname119+0x1>

000002c0 <L0^A>:
     2c0:	4e c0       	rjmp	.+156    	; 0x35e <.L2>
     2c2:	7c f4       	brge	.+30     	; 0x2e2 <.L3>
     2c4:	21 30       	cpi	r18, 0x01	; 1
     2c6:	31 05       	cpc	r19, r1
     2c8:	09 f4       	brne	.+2      	; 0x2cc <.Lname121>

000002ca <L0^A>:
     2ca:	46 c0       	rjmp	.+140    	; 0x358 <.L4>
     2cc:	22 30       	cpi	r18, 0x02	; 2
     2ce:	31 05       	cpc	r19, r1
     2d0:	39 f4       	brne	.+14     	; 0x2e0 <.L10>

000002d2 <.Loc.5>:
        padNavigeren();
        break;
    }
    case keren_R:       //keer opdracht naar RECHTS
    {
        padNavigeren();
     2d2:	0e 94 65 05 	call	0xaca	; 0xaca <padNavigeren>

000002d6 <.LVL2>:
        kerenR();
     2d6:	0e 94 15 06 	call	0xc2a	; 0xc2a <kerenR>

000002da <.LVL3>:
        padNavigeren();
     2da:	0e 94 65 05 	call	0xaca	; 0xaca <padNavigeren>

000002de <.LVL4>:
        break;
     2de:	3e c0       	rjmp	.+124    	; 0x35c <.L6>

000002e0 <.L10>:
     2e0:	3d c0       	rjmp	.+122    	; 0x35c <.L6>

000002e2 <.L3>:
    switch(programma_keuze())
     2e2:	24 30       	cpi	r18, 0x04	; 4
     2e4:	31 05       	cpc	r19, r1
     2e6:	09 f4       	brne	.+2      	; 0x2ea <.Lname126>

000002e8 <L0^A>:
     2e8:	41 c0       	rjmp	.+130    	; 0x36c <.L7>
     2ea:	25 30       	cpi	r18, 0x05	; 5
     2ec:	31 05       	cpc	r19, r1
     2ee:	99 f5       	brne	.+102    	; 0x356 <.L11>

000002f0 <.Loc.10>:
        padNavigeren();
        break;
    }
    case parkour:       //Parkour tot 15 blokjes
    {
        blokjes_gedetecteerd(2);
     2f0:	82 e0       	ldi	r24, 0x02	; 2
     2f2:	90 e0       	ldi	r25, 0x00	; 0
     2f4:	0e 94 cc 02 	call	0x598	; 0x598 <blokjes_gedetecteerd>

000002f8 <.LVL5>:
        INFRAROOD_MODULE_ENABLE_R_PORT |= (1 << INFRAROOD_MODULE_ENABLE_R);
     2f8:	45 9a       	sbi	0x08, 5	; 8

000002fa <.Loc.13>:
        blokjes_gedetecteerd(1);
     2fa:	81 e0       	ldi	r24, 0x01	; 1
     2fc:	90 e0       	ldi	r25, 0x00	; 0
     2fe:	0e 94 cc 02 	call	0x598	; 0x598 <blokjes_gedetecteerd>

00000302 <.LVL6>:
        INFRAROOD_MODULE_ENABLE_L_PORT |= (1 << INFRAROOD_MODULE_ENABLE_L);
     302:	44 9a       	sbi	0x08, 4	; 8

00000304 <.Loc.16>:
        blokjes_stop(PAROURBLOKJES, SET);
     304:	61 e0       	ldi	r22, 0x01	; 1
     306:	70 e0       	ldi	r23, 0x00	; 0
     308:	8f e0       	ldi	r24, 0x0F	; 15
     30a:	90 e0       	ldi	r25, 0x00	; 0
     30c:	0e 94 f6 02 	call	0x5ec	; 0x5ec <blokjes_stop>

00000310 <.LVL7>:
        padNavigeren();
     310:	0e 94 65 05 	call	0xaca	; 0xaca <padNavigeren>

00000314 <.LVL8>:

        INFRAROOD_MODULE_ENABLE_R_PORT &= ~(1 << INFRAROOD_MODULE_ENABLE_R);
     314:	45 98       	cbi	0x08, 5	; 8

00000316 <.Loc.20>:
        INFRAROOD_MODULE_ENABLE_L_PORT &= ~(1 << INFRAROOD_MODULE_ENABLE_L);
     316:	44 98       	cbi	0x08, 4	; 8

00000318 <.Loc.22>:
        kerenR();
     318:	0e 94 15 06 	call	0xc2a	; 0xc2a <kerenR>

0000031c <.LVL9>:

        blokjes_gedetecteerd(2);
     31c:	82 e0       	ldi	r24, 0x02	; 2
     31e:	90 e0       	ldi	r25, 0x00	; 0
     320:	0e 94 cc 02 	call	0x598	; 0x598 <blokjes_gedetecteerd>

00000324 <.LVL10>:
        INFRAROOD_MODULE_ENABLE_R_PORT |= (1 << INFRAROOD_MODULE_ENABLE_R);
     324:	45 9a       	sbi	0x08, 5	; 8

00000326 <.Loc.26>:
        blokjes_gedetecteerd(1);
     326:	81 e0       	ldi	r24, 0x01	; 1
     328:	90 e0       	ldi	r25, 0x00	; 0
     32a:	0e 94 cc 02 	call	0x598	; 0x598 <blokjes_gedetecteerd>

0000032e <.LVL11>:
        INFRAROOD_MODULE_ENABLE_L_PORT |= (1 << INFRAROOD_MODULE_ENABLE_L);
     32e:	44 9a       	sbi	0x08, 4	; 8

00000330 <.Loc.29>:
        padNavigeren();
     330:	0e 94 65 05 	call	0xaca	; 0xaca <padNavigeren>

00000334 <.LVL12>:

        INFRAROOD_MODULE_ENABLE_R_PORT &= ~(1 << INFRAROOD_MODULE_ENABLE_R);
     334:	45 98       	cbi	0x08, 5	; 8

00000336 <.Loc.32>:
        INFRAROOD_MODULE_ENABLE_L_PORT &= ~(1 << INFRAROOD_MODULE_ENABLE_L);
     336:	44 98       	cbi	0x08, 4	; 8

00000338 <.Loc.34>:
        kerenLGroot();
     338:	0e 94 2b 07 	call	0xe56	; 0xe56 <kerenLGroot>

0000033c <.LVL13>:

        blokjes_gedetecteerd(2);
     33c:	82 e0       	ldi	r24, 0x02	; 2
     33e:	90 e0       	ldi	r25, 0x00	; 0
     340:	0e 94 cc 02 	call	0x598	; 0x598 <blokjes_gedetecteerd>

00000344 <.LVL14>:
        INFRAROOD_MODULE_ENABLE_R_PORT |= (1 << INFRAROOD_MODULE_ENABLE_R);
     344:	45 9a       	sbi	0x08, 5	; 8

00000346 <.Loc.38>:
        blokjes_gedetecteerd(1);
     346:	81 e0       	ldi	r24, 0x01	; 1
     348:	90 e0       	ldi	r25, 0x00	; 0
     34a:	0e 94 cc 02 	call	0x598	; 0x598 <blokjes_gedetecteerd>

0000034e <.LVL15>:
        INFRAROOD_MODULE_ENABLE_L_PORT |= (1 << INFRAROOD_MODULE_ENABLE_L);
     34e:	44 9a       	sbi	0x08, 4	; 8

00000350 <.Loc.41>:
        padNavigeren();
     350:	0e 94 65 05 	call	0xaca	; 0xaca <padNavigeren>

00000354 <.LVL16>:
        break;
     354:	03 c0       	rjmp	.+6      	; 0x35c <.L6>

00000356 <.L11>:
     356:	02 c0       	rjmp	.+4      	; 0x35c <.L6>

00000358 <.L4>:
        padNavigeren();
     358:	0e 94 65 05 	call	0xaca	; 0xaca <padNavigeren>

0000035c <.L6>:
    }
    }
    //KLAAR
    while(1);
     35c:	ff cf       	rjmp	.-2      	; 0x35c <.L6>

0000035e <.L2>:
        padNavigeren();
     35e:	0e 94 65 05 	call	0xaca	; 0xaca <padNavigeren>

00000362 <.LVL18>:
        kerenLKlein();
     362:	0e 94 a0 06 	call	0xd40	; 0xd40 <kerenLKlein>

00000366 <.LVL19>:
        padNavigeren();
     366:	0e 94 65 05 	call	0xaca	; 0xaca <padNavigeren>

0000036a <.LVL20>:
        break;
     36a:	f8 cf       	rjmp	.-16     	; 0x35c <.L6>

0000036c <.L7>:
        blokjes_gedetecteerd(2);
     36c:	82 e0       	ldi	r24, 0x02	; 2
     36e:	90 e0       	ldi	r25, 0x00	; 0
     370:	0e 94 cc 02 	call	0x598	; 0x598 <blokjes_gedetecteerd>

00000374 <.LVL21>:
        INFRAROOD_MODULE_ENABLE_R_PORT |= (1 << INFRAROOD_MODULE_ENABLE_R);
     374:	45 9a       	sbi	0x08, 5	; 8

00000376 <.Loc.54>:
        blokjes_gedetecteerd(1);
     376:	81 e0       	ldi	r24, 0x01	; 1
     378:	90 e0       	ldi	r25, 0x00	; 0
     37a:	0e 94 cc 02 	call	0x598	; 0x598 <blokjes_gedetecteerd>

0000037e <.LVL22>:
        INFRAROOD_MODULE_ENABLE_L_PORT |= (1 << INFRAROOD_MODULE_ENABLE_L);
     37e:	44 9a       	sbi	0x08, 4	; 8

00000380 <.Loc.57>:
        blokjes_stop(BLOKDETECTIE, SET);
     380:	61 e0       	ldi	r22, 0x01	; 1
     382:	70 e0       	ldi	r23, 0x00	; 0
     384:	85 e0       	ldi	r24, 0x05	; 5
     386:	90 e0       	ldi	r25, 0x00	; 0
     388:	0e 94 f6 02 	call	0x5ec	; 0x5ec <blokjes_stop>

0000038c <.LVL23>:
        padNavigeren();
     38c:	0e 94 65 05 	call	0xaca	; 0xaca <padNavigeren>

00000390 <.LVL24>:
        break;
     390:	e5 cf       	rjmp	.-54     	; 0x35c <.L6>

00000392 <send_byte>:
const uint8_t segmentMap[] = {
    0x3F, 0x06, 0x5B, 0x4F, 0x66, 0x6D, 0x7D, 0x07, 0x7F, 0x6F
};

// Display
void send_byte(uint8_t data) {
     392:	98 e0       	ldi	r25, 0x08	; 8
     394:	12 c0       	rjmp	.+36     	; 0x3ba <.L4>

00000396 <.L2>:
    for (uint8_t i = 0; i < 8; i++) {
        CLK_LOW();
        if (data & 0x01) DIO_HIGH(); else DIO_LOW();
     396:	a0 98       	cbi	0x14, 0	; 20

00000398 <.L3>:
	#else
		//round up by default
		__ticks_dc = (uint32_t)(ceil(fabs(__tmp)));
	#endif

	__builtin_avr_delay_cycles(__ticks_dc);
     398:	e7 ec       	ldi	r30, 0xC7	; 199
     39a:	f0 e0       	ldi	r31, 0x00	; 0

0000039c <.L1^B1>:
     39c:	31 97       	sbiw	r30, 0x01	; 1
     39e:	f1 f7       	brne	.-4      	; 0x39c <.L1^B1>
     3a0:	00 c0       	rjmp	.+0      	; 0x3a2 <L0^A>

000003a2 <L0^A>:
	...

000003a4 <.LBE20>:
        _delay_us(50);
        CLK_HIGH();
     3a4:	a1 9a       	sbi	0x14, 1	; 20

000003a6 <.LBB22>:
     3a6:	e7 ec       	ldi	r30, 0xC7	; 199
     3a8:	f0 e0       	ldi	r31, 0x00	; 0

000003aa <.L1^B2>:
     3aa:	31 97       	sbiw	r30, 0x01	; 1
     3ac:	f1 f7       	brne	.-4      	; 0x3aa <.L1^B2>
     3ae:	00 c0       	rjmp	.+0      	; 0x3b0 <L0^A>

000003b0 <L0^A>:
	...

000003b2 <.LBE22>:
        _delay_us(50);
        data >>= 1;
     3b2:	86 95       	lsr	r24

000003b4 <.Loc.27>:
    for (uint8_t i = 0; i < 8; i++) {
     3b4:	91 50       	subi	r25, 0x01	; 1

000003b6 <.Loc.29>:
     3b6:	99 23       	and	r25, r25
     3b8:	29 f0       	breq	.+10     	; 0x3c4 <.L6>

000003ba <.L4>:
        CLK_LOW();
     3ba:	a1 98       	cbi	0x14, 1	; 20

000003bc <.Loc.31>:
        if (data & 0x01) DIO_HIGH(); else DIO_LOW();
     3bc:	80 ff       	sbrs	r24, 0
     3be:	eb cf       	rjmp	.-42     	; 0x396 <.L2>

000003c0 <.Loc.33>:
     3c0:	a0 9a       	sbi	0x14, 0	; 20
     3c2:	ea cf       	rjmp	.-44     	; 0x398 <.L3>

000003c4 <.L6>:
    }
    // Wachten op ACK (Acknowledgement)
    CLK_LOW();
     3c4:	a1 98       	cbi	0x14, 1	; 20

000003c6 <.Loc.36>:
    DIO_INPUT();
     3c6:	98 98       	cbi	0x13, 0	; 19

000003c8 <.LBB25>:
     3c8:	87 ec       	ldi	r24, 0xC7	; 199
     3ca:	90 e0       	ldi	r25, 0x00	; 0

000003cc <.L1^B3>:
     3cc:	01 97       	sbiw	r24, 0x01	; 1
     3ce:	f1 f7       	brne	.-4      	; 0x3cc <.L1^B3>

000003d0 <.Loc.45>:
     3d0:	00 c0       	rjmp	.+0      	; 0x3d2 <L0^A>

000003d2 <L0^A>:
	...

000003d4 <.LBE25>:
    _delay_us(50);
    CLK_HIGH();
     3d4:	a1 9a       	sbi	0x14, 1	; 20

000003d6 <.LBB27>:
     3d6:	e7 ec       	ldi	r30, 0xC7	; 199
     3d8:	f0 e0       	ldi	r31, 0x00	; 0

000003da <.L1^B4>:
     3da:	31 97       	sbiw	r30, 0x01	; 1
     3dc:	f1 f7       	brne	.-4      	; 0x3da <.L1^B4>
     3de:	00 c0       	rjmp	.+0      	; 0x3e0 <L0^A>

000003e0 <L0^A>:
	...

000003e2 <.LBE27>:
    _delay_us(50);
    CLK_LOW();
     3e2:	a1 98       	cbi	0x14, 1	; 20

000003e4 <.Loc.58>:
    DIO_OUTPUT();
     3e4:	98 9a       	sbi	0x13, 0	; 19

000003e6 <.Loc.59>:
}
     3e6:	08 95       	ret

000003e8 <tm_start>:

// Display
void tm_start() {
    DIO_OUTPUT(); DIO_HIGH(); CLK_HIGH(); _delay_us(50);
     3e8:	98 9a       	sbi	0x13, 0	; 19

000003ea <.Loc.62>:
     3ea:	a0 9a       	sbi	0x14, 0	; 20

000003ec <.Loc.63>:
     3ec:	a1 9a       	sbi	0x14, 1	; 20

000003ee <.LBB29>:
     3ee:	87 ec       	ldi	r24, 0xC7	; 199
     3f0:	90 e0       	ldi	r25, 0x00	; 0

000003f2 <.L1^B5>:
     3f2:	01 97       	sbiw	r24, 0x01	; 1
     3f4:	f1 f7       	brne	.-4      	; 0x3f2 <.L1^B5>
     3f6:	00 c0       	rjmp	.+0      	; 0x3f8 <L0^A>

000003f8 <L0^A>:
	...

000003fa <.LBE29>:
    DIO_LOW(); _delay_us(50); CLK_LOW();
     3fa:	a0 98       	cbi	0x14, 0	; 20

000003fc <.LBB31>:
     3fc:	87 ec       	ldi	r24, 0xC7	; 199
     3fe:	90 e0       	ldi	r25, 0x00	; 0

00000400 <.L1^B6>:
     400:	01 97       	sbiw	r24, 0x01	; 1
     402:	f1 f7       	brne	.-4      	; 0x400 <.L1^B6>
     404:	00 c0       	rjmp	.+0      	; 0x406 <L0^A>

00000406 <L0^A>:
	...

00000408 <.LBE31>:
     408:	a1 98       	cbi	0x14, 1	; 20

0000040a <.Loc.84>:
}
     40a:	08 95       	ret

0000040c <tm_stop>:

// Display
void tm_stop() {
    CLK_LOW(); DIO_LOW(); _delay_us(50);
     40c:	a1 98       	cbi	0x14, 1	; 20

0000040e <.Loc.87>:
     40e:	a0 98       	cbi	0x14, 0	; 20

00000410 <.LBB33>:
     410:	87 ec       	ldi	r24, 0xC7	; 199
     412:	90 e0       	ldi	r25, 0x00	; 0

00000414 <.L1^B7>:
     414:	01 97       	sbiw	r24, 0x01	; 1
     416:	f1 f7       	brne	.-4      	; 0x414 <.L1^B7>
     418:	00 c0       	rjmp	.+0      	; 0x41a <L0^A>

0000041a <L0^A>:
	...

0000041c <.LBE33>:
    CLK_HIGH(); _delay_us(50); DIO_HIGH();
     41c:	a1 9a       	sbi	0x14, 1	; 20

0000041e <.LBB35>:
     41e:	87 ec       	ldi	r24, 0xC7	; 199
     420:	90 e0       	ldi	r25, 0x00	; 0

00000422 <.L1^B8>:
     422:	01 97       	sbiw	r24, 0x01	; 1
     424:	f1 f7       	brne	.-4      	; 0x422 <.L1^B8>
     426:	00 c0       	rjmp	.+0      	; 0x428 <L0^A>

00000428 <L0^A>:
	...

0000042a <.LBE35>:
     42a:	a0 9a       	sbi	0x14, 0	; 20

0000042c <.Loc.108>:
}
     42c:	08 95       	ret

0000042e <tm1637_showNumber>:

// Print cijfers op display
void tm1637_showNumber(uint16_t num) {
     42e:	cf 92       	push	r12
     430:	df 92       	push	r13
     432:	ef 92       	push	r14
     434:	ff 92       	push	r15
     436:	0f 93       	push	r16
     438:	1f 93       	push	r17
     43a:	cf 93       	push	r28
     43c:	df 93       	push	r29
     43e:	00 d0       	rcall	.+0      	; 0x440 <L0^A>

00000440 <L0^A>:
     440:	0f 92       	push	r0
     442:	cd b7       	in	r28, 0x3d	; 61
     444:	de b7       	in	r29, 0x3e	; 62
     446:	48 2f       	mov	r20, r24
     448:	59 2f       	mov	r21, r25

0000044a <.Loc.111>:
    uint8_t digits[4];
    digits[0] = num / 1000;
     44a:	9a 01       	movw	r18, r20
     44c:	36 95       	lsr	r19
     44e:	27 95       	ror	r18
     450:	36 95       	lsr	r19
     452:	27 95       	ror	r18
     454:	36 95       	lsr	r19
     456:	27 95       	ror	r18
     458:	a5 ec       	ldi	r26, 0xC5	; 197
     45a:	b0 e2       	ldi	r27, 0x20	; 32
     45c:	0e 94 39 09 	call	0x1272	; 0x1272 <__umulhisi3>

00000460 <.Loc.114>:
     460:	92 95       	swap	r25
     462:	82 95       	swap	r24
     464:	8f 70       	andi	r24, 0x0F	; 15
     466:	89 27       	eor	r24, r25
     468:	9f 70       	andi	r25, 0x0F	; 15
     46a:	89 27       	eor	r24, r25

0000046c <.Loc.115>:
     46c:	89 83       	std	Y+1, r24	; 0x01

0000046e <.Loc.116>:
    digits[1] = (num / 100) % 10;
     46e:	9a 01       	movw	r18, r20
     470:	36 95       	lsr	r19
     472:	27 95       	ror	r18
     474:	36 95       	lsr	r19
     476:	27 95       	ror	r18
     478:	ab e7       	ldi	r26, 0x7B	; 123
     47a:	b4 e1       	ldi	r27, 0x14	; 20
     47c:	0e 94 39 09 	call	0x1272	; 0x1272 <__umulhisi3>
     480:	fc 01       	movw	r30, r24
     482:	f6 95       	lsr	r31
     484:	e7 95       	ror	r30

00000486 <.Loc.118>:
     486:	9f 01       	movw	r18, r30
     488:	ad ec       	ldi	r26, 0xCD	; 205
     48a:	bc ec       	ldi	r27, 0xCC	; 204
     48c:	0e 94 39 09 	call	0x1272	; 0x1272 <__umulhisi3>
     490:	9c 01       	movw	r18, r24
     492:	36 95       	lsr	r19
     494:	27 95       	ror	r18
     496:	36 95       	lsr	r19
     498:	27 95       	ror	r18
     49a:	36 95       	lsr	r19
     49c:	27 95       	ror	r18
     49e:	c9 01       	movw	r24, r18
     4a0:	88 0f       	add	r24, r24
     4a2:	99 1f       	adc	r25, r25
     4a4:	88 0f       	add	r24, r24
     4a6:	99 1f       	adc	r25, r25
     4a8:	82 0f       	add	r24, r18
     4aa:	93 1f       	adc	r25, r19
     4ac:	88 0f       	add	r24, r24
     4ae:	99 1f       	adc	r25, r25
     4b0:	e8 1b       	sub	r30, r24
     4b2:	f9 0b       	sbc	r31, r25

000004b4 <.Loc.119>:
     4b4:	ea 83       	std	Y+2, r30	; 0x02

000004b6 <.Loc.120>:
    digits[2] = (num / 10) % 10;
     4b6:	9a 01       	movw	r18, r20
     4b8:	0e 94 39 09 	call	0x1272	; 0x1272 <__umulhisi3>
     4bc:	fc 01       	movw	r30, r24
     4be:	f6 95       	lsr	r31
     4c0:	e7 95       	ror	r30
     4c2:	f6 95       	lsr	r31
     4c4:	e7 95       	ror	r30
     4c6:	f6 95       	lsr	r31
     4c8:	e7 95       	ror	r30

000004ca <.Loc.122>:
     4ca:	9f 01       	movw	r18, r30
     4cc:	0e 94 39 09 	call	0x1272	; 0x1272 <__umulhisi3>
     4d0:	9c 01       	movw	r18, r24
     4d2:	36 95       	lsr	r19
     4d4:	27 95       	ror	r18
     4d6:	36 95       	lsr	r19
     4d8:	27 95       	ror	r18
     4da:	36 95       	lsr	r19
     4dc:	27 95       	ror	r18
     4de:	c9 01       	movw	r24, r18
     4e0:	88 0f       	add	r24, r24
     4e2:	99 1f       	adc	r25, r25
     4e4:	88 0f       	add	r24, r24
     4e6:	99 1f       	adc	r25, r25
     4e8:	82 0f       	add	r24, r18
     4ea:	93 1f       	adc	r25, r19
     4ec:	88 0f       	add	r24, r24
     4ee:	99 1f       	adc	r25, r25
     4f0:	9f 01       	movw	r18, r30
     4f2:	28 1b       	sub	r18, r24
     4f4:	39 0b       	sbc	r19, r25

000004f6 <.Loc.123>:
     4f6:	2b 83       	std	Y+3, r18	; 0x03

000004f8 <.Loc.124>:
    digits[3] = num % 10;
     4f8:	cf 01       	movw	r24, r30
     4fa:	88 0f       	add	r24, r24
     4fc:	99 1f       	adc	r25, r25
     4fe:	88 0f       	add	r24, r24
     500:	99 1f       	adc	r25, r25
     502:	8e 0f       	add	r24, r30
     504:	9f 1f       	adc	r25, r31
     506:	88 0f       	add	r24, r24
     508:	99 1f       	adc	r25, r25
     50a:	48 1b       	sub	r20, r24
     50c:	59 0b       	sbc	r21, r25

0000050e <.Loc.126>:
     50e:	4c 83       	std	Y+4, r20	; 0x04

00000510 <.Loc.127>:

    tm_start(); send_byte(0x40); tm_stop(); // Data command (auto increment)
     510:	0e 94 f4 01 	call	0x3e8	; 0x3e8 <tm_start>

00000514 <.LVL24>:
     514:	80 e4       	ldi	r24, 0x40	; 64
     516:	0e 94 c9 01 	call	0x392	; 0x392 <send_byte>

0000051a <.LVL25>:
     51a:	0e 94 06 02 	call	0x40c	; 0x40c <tm_stop>

0000051e <.LVL26>:
    tm_start(); send_byte(0xC0);            // Start adres (eerste digit)
     51e:	0e 94 f4 01 	call	0x3e8	; 0x3e8 <tm_start>

00000522 <.LVL27>:
     522:	80 ec       	ldi	r24, 0xC0	; 192
     524:	0e 94 c9 01 	call	0x392	; 0x392 <send_byte>

00000528 <.LVL28>:

    uint8_t leadingZero = 1;
    for (int i = 0; i < 4; i++) {
     528:	ce 01       	movw	r24, r28
     52a:	01 96       	adiw	r24, 0x01	; 1
     52c:	7c 01       	movw	r14, r24

0000052e <.Loc.136>:
     52e:	00 e0       	ldi	r16, 0x00	; 0
     530:	10 e0       	ldi	r17, 0x00	; 0

00000532 <.Loc.137>:
    uint8_t leadingZero = 1;
     532:	dd 24       	eor	r13, r13
     534:	d3 94       	inc	r13

00000536 <.Loc.138>:
        // Verberg nullen aan het begin, behalve bij het allerlaatste cijfer
        if (i < 3 && digits[i] == 0 && leadingZero) {
            send_byte(0x00);
        } else {
            leadingZero = 0;
     536:	c1 2c       	mov	r12, r1
     538:	0f c0       	rjmp	.+30     	; 0x558 <.L13>

0000053a <.L10>:
            send_byte(segmentMap[digits[i]]);
     53a:	d7 01       	movw	r26, r14
     53c:	ed 91       	ld	r30, X+
     53e:	7d 01       	movw	r14, r26
     540:	f0 e0       	ldi	r31, 0x00	; 0

00000542 <.Loc.142>:
     542:	ee 5f       	subi	r30, 0xFE	; 254
     544:	fd 4f       	sbci	r31, 0xFD	; 253

00000546 <.Loc.143>:
     546:	80 81       	ld	r24, Z
     548:	0e 94 c9 01 	call	0x392	; 0x392 <send_byte>

0000054c <.LVL30>:
    for (int i = 0; i < 4; i++) {
     54c:	0f 5f       	subi	r16, 0xFF	; 255
     54e:	1f 4f       	sbci	r17, 0xFF	; 255

00000550 <.Loc.145>:
     550:	04 30       	cpi	r16, 0x04	; 4
     552:	11 05       	cpc	r17, r1
     554:	91 f0       	breq	.+36     	; 0x57a <.L12>

00000556 <.Loc.146>:
            leadingZero = 0;
     556:	dc 2c       	mov	r13, r12

00000558 <.L13>:
        if (i < 3 && digits[i] == 0 && leadingZero) {
     558:	03 30       	cpi	r16, 0x03	; 3
     55a:	11 05       	cpc	r17, r1
     55c:	74 f7       	brge	.-36     	; 0x53a <.L10>

0000055e <.Loc.149>:
     55e:	d7 01       	movw	r26, r14
     560:	8c 91       	ld	r24, X
     562:	81 11       	cpse	r24, r1
     564:	ea cf       	rjmp	.-44     	; 0x53a <.L10>

00000566 <.Loc.150>:
     566:	dd 20       	and	r13, r13
     568:	41 f3       	breq	.-48     	; 0x53a <.L10>

0000056a <.Loc.151>:
            send_byte(0x00);
     56a:	0e 94 c9 01 	call	0x392	; 0x392 <send_byte>

0000056e <.LVL33>:
    for (int i = 0; i < 4; i++) {
     56e:	0f 5f       	subi	r16, 0xFF	; 255
     570:	1f 4f       	sbci	r17, 0xFF	; 255

00000572 <.Loc.153>:
     572:	bf ef       	ldi	r27, 0xFF	; 255
     574:	eb 1a       	sub	r14, r27
     576:	fb 0a       	sbc	r15, r27
     578:	ef cf       	rjmp	.-34     	; 0x558 <.L13>

0000057a <.L12>:
        }
    }
    tm_stop();
     57a:	0e 94 06 02 	call	0x40c	; 0x40c <tm_stop>

0000057e <.LVL36>:
}
     57e:	0f 90       	pop	r0
     580:	0f 90       	pop	r0
     582:	0f 90       	pop	r0
     584:	0f 90       	pop	r0
     586:	df 91       	pop	r29
     588:	cf 91       	pop	r28
     58a:	1f 91       	pop	r17
     58c:	0f 91       	pop	r16

0000058e <.Loc.157>:
     58e:	ff 90       	pop	r15
     590:	ef 90       	pop	r14
     592:	df 90       	pop	r13
     594:	cf 90       	pop	r12
     596:	08 95       	ret

00000598 <blokjes_gedetecteerd>:

int blokjes_gedetecteerd (int nieuw) { // Houdt bij hoeveel blokjes gedetecteerd zijn, compenseert voor valse positieve
     598:	28 2f       	mov	r18, r24
     59a:	39 2f       	mov	r19, r25

0000059c <.Loc.160>:
    static int vals = 2;
    static int aantal = 0;
    if (nieuw == 2) {
     59c:	22 30       	cpi	r18, 0x02	; 2
     59e:	31 05       	cpc	r19, r1
     5a0:	79 f0       	breq	.+30     	; 0x5c0 <.L19>

000005a2 <.Loc.164>:
        vals = 2;
    }
    if (nieuw == 0 && vals <= 0) {
     5a2:	23 2b       	or	r18, r19
     5a4:	99 f4       	brne	.+38     	; 0x5cc <.L16>

000005a6 <.Loc.166>:
     5a6:	80 91 00 02 	lds	r24, 0x0200	; 0x800200 <vals.2>
     5aa:	90 91 01 02 	lds	r25, 0x0201	; 0x800201 <vals.2+0x1>

000005ae <.Loc.167>:
     5ae:	18 16       	cp	r1, r24
     5b0:	19 06       	cpc	r1, r25
     5b2:	8c f4       	brge	.+34     	; 0x5d6 <.L20>

000005b4 <.L17>:
        aantal++;
    }
    if (nieuw == 0) {
        vals = vals -1;
     5b4:	01 97       	sbiw	r24, 0x01	; 1

000005b6 <.Loc.171>:
     5b6:	90 93 01 02 	sts	0x0201, r25	; 0x800201 <vals.2+0x1>
     5ba:	80 93 00 02 	sts	0x0200, r24	; 0x800200 <vals.2>
     5be:	06 c0       	rjmp	.+12     	; 0x5cc <.L16>

000005c0 <.L19>:
        vals = 2;
     5c0:	82 e0       	ldi	r24, 0x02	; 2
     5c2:	90 e0       	ldi	r25, 0x00	; 0

000005c4 <.Loc.174>:
     5c4:	90 93 01 02 	sts	0x0201, r25	; 0x800201 <vals.2+0x1>
     5c8:	80 93 00 02 	sts	0x0200, r24	; 0x800200 <vals.2>

000005cc <.L16>:
    }
    return (aantal);
     5cc:	80 91 0e 02 	lds	r24, 0x020E	; 0x80020e <aantal.1>
     5d0:	90 91 0f 02 	lds	r25, 0x020F	; 0x80020f <aantal.1+0x1>

000005d4 <.Loc.179>:
}
     5d4:	08 95       	ret

000005d6 <.L20>:
        aantal++;
     5d6:	20 91 0e 02 	lds	r18, 0x020E	; 0x80020e <aantal.1>
     5da:	30 91 0f 02 	lds	r19, 0x020F	; 0x80020f <aantal.1+0x1>
     5de:	2f 5f       	subi	r18, 0xFF	; 255
     5e0:	3f 4f       	sbci	r19, 0xFF	; 255
     5e2:	30 93 0f 02 	sts	0x020F, r19	; 0x80020f <aantal.1+0x1>
     5e6:	20 93 0e 02 	sts	0x020E, r18	; 0x80020e <aantal.1>
     5ea:	e4 cf       	rjmp	.-56     	; 0x5b4 <.L17>

000005ec <blokjes_stop>:

int blokjes_stop(int taak, int instel) { // Aangeven bij hoeveel blokjes de robot moet stoppen
    static int blokjes_stoppen = 0;
    if (instel == 1) {
     5ec:	61 30       	cpi	r22, 0x01	; 1
     5ee:	71 05       	cpc	r23, r1
     5f0:	29 f0       	breq	.+10     	; 0x5fc <.L23>

000005f2 <.L22>:
        blokjes_stoppen = taak;
    }
    return (blokjes_stoppen);
}
     5f2:	80 91 0c 02 	lds	r24, 0x020C	; 0x80020c <blokjes_stoppen.0>
     5f6:	90 91 0d 02 	lds	r25, 0x020D	; 0x80020d <blokjes_stoppen.0+0x1>

000005fa <.Loc.188>:
     5fa:	08 95       	ret

000005fc <.L23>:
        blokjes_stoppen = taak;
     5fc:	80 93 0c 02 	sts	0x020C, r24	; 0x80020c <blokjes_stoppen.0>
     600:	90 93 0d 02 	sts	0x020D, r25	; 0x80020d <blokjes_stoppen.0+0x1>
     604:	f6 cf       	rjmp	.-20     	; 0x5f2 <.L22>

00000606 <__vector_5>:

// infraroodsensor links detecteert blokje
ISR(INT4_vect) {
     606:	1f 92       	push	r1
     608:	0f 92       	push	r0
     60a:	0f b6       	in	r0, 0x3f	; 63
     60c:	0f 92       	push	r0
     60e:	11 24       	eor	r1, r1
     610:	0b b6       	in	r0, 0x3b	; 59
     612:	0f 92       	push	r0
     614:	ef 92       	push	r14
     616:	ff 92       	push	r15
     618:	0f 93       	push	r16
     61a:	1f 93       	push	r17
     61c:	2f 93       	push	r18
     61e:	3f 93       	push	r19
     620:	4f 93       	push	r20
     622:	5f 93       	push	r21
     624:	6f 93       	push	r22
     626:	7f 93       	push	r23
     628:	8f 93       	push	r24
     62a:	9f 93       	push	r25
     62c:	af 93       	push	r26
     62e:	bf 93       	push	r27
     630:	ef 93       	push	r30
     632:	ff 93       	push	r31
     634:	cf 93       	push	r28
     636:	df 93       	push	r29
     638:	0f 92       	push	r0
     63a:	0f 92       	push	r0
     63c:	cd b7       	in	r28, 0x3d	; 61
     63e:	de b7       	in	r29, 0x3e	; 62

00000640 <.LBB41>:
    return (blokjes_stoppen);
     640:	e0 90 0c 02 	lds	r14, 0x020C	; 0x80020c <blokjes_stoppen.0>
     644:	f0 90 0d 02 	lds	r15, 0x020D	; 0x80020d <blokjes_stoppen.0+0x1>

00000648 <.LBE41>:
    int blokjes_stoppen = blokjes_stop(0,0); // Kijkt hoeveel blokjes er geteld moeten worden
    int aantal_blokjes = blokjes_gedetecteerd(0); // Past aantal getelde blokjes aan
     648:	80 e0       	ldi	r24, 0x00	; 0
     64a:	90 e0       	ldi	r25, 0x00	; 0
     64c:	0e 94 cc 02 	call	0x598	; 0x598 <blokjes_gedetecteerd>

00000650 <.LVL47>:
     650:	08 2f       	mov	r16, r24
     652:	19 2f       	mov	r17, r25

00000654 <.Loc.201>:
    tm1637_showNumber(aantal_blokjes);
     654:	c8 01       	movw	r24, r16
     656:	0e 94 17 02 	call	0x42e	; 0x42e <tm1637_showNumber>

0000065a <.LVL49>:
    motor_R(0); // Motor uitschakelen
     65a:	60 e0       	ldi	r22, 0x00	; 0
     65c:	70 e0       	ldi	r23, 0x00	; 0
     65e:	cb 01       	movw	r24, r22
     660:	0e 94 11 04 	call	0x822	; 0x822 <motor_R>

00000664 <.LVL50>:
    motor_L(0); // Motor uitschakelen
     664:	60 e0       	ldi	r22, 0x00	; 0
     666:	70 e0       	ldi	r23, 0x00	; 0
     668:	cb 01       	movw	r24, r22
     66a:	0e 94 41 04 	call	0x882	; 0x882 <motor_L>

0000066e <.LVL51>:
    volatile int teller = 0;
     66e:	1a 82       	std	Y+2, r1	; 0x02
     670:	19 82       	std	Y+1, r1	; 0x01

00000672 <.Loc.206>:
    if (aantal_blokjes >= blokjes_stoppen) { // Als het gewenste aantal blokjes bereikt is langzaam knipperen en niet meer verder rijden
     672:	0e 15       	cp	r16, r14
     674:	1f 05       	cpc	r17, r15
     676:	b4 f0       	brlt	.+44     	; 0x6a4 <.L25>

00000678 <.Loc.208>:
        TCNT0 = 0;
     678:	16 bc       	out	0x26, r1	; 38

0000067a <.Loc.210>:
                if ((TIFR0 & (1 << TOV0))!= 0) {
                    TIFR0 = (1 << TOV0);
                    teller++;
                }
            }
            LED_2_PORT ^= (1 << LED_2);
     67a:	22 e0       	ldi	r18, 0x02	; 2

0000067c <.Loc.211>:
                    TIFR0 = (1 << TOV0);
     67c:	31 e0       	ldi	r19, 0x01	; 1
     67e:	08 c0       	rjmp	.+16     	; 0x690 <.L26>

00000680 <.L28>:
                if ((TIFR0 & (1 << TOV0))!= 0) {
     680:	a8 9b       	sbis	0x15, 0	; 21
     682:	06 c0       	rjmp	.+12     	; 0x690 <.L26>

00000684 <.Loc.214>:
                    TIFR0 = (1 << TOV0);
     684:	35 bb       	out	0x15, r19	; 21

00000686 <.Loc.216>:
                    teller++;
     686:	89 81       	ldd	r24, Y+1	; 0x01
     688:	9a 81       	ldd	r25, Y+2	; 0x02
     68a:	01 96       	adiw	r24, 0x01	; 1
     68c:	9a 83       	std	Y+2, r25	; 0x02
     68e:	89 83       	std	Y+1, r24	; 0x01

00000690 <.L26>:
            while (teller < cycles_per_seconde) {
     690:	89 81       	ldd	r24, Y+1	; 0x01
     692:	9a 81       	ldd	r25, Y+2	; 0x02
     694:	cd 97       	sbiw	r24, 0x3d	; 61
     696:	a4 f3       	brlt	.-24     	; 0x680 <.L28>

00000698 <.Loc.219>:
            LED_2_PORT ^= (1 << LED_2);
     698:	85 b1       	in	r24, 0x05	; 5

0000069a <.Loc.220>:
     69a:	82 27       	eor	r24, r18
     69c:	85 b9       	out	0x05, r24	; 5

0000069e <.Loc.221>:
            teller = 0;
     69e:	1a 82       	std	Y+2, r1	; 0x02
     6a0:	19 82       	std	Y+1, r1	; 0x01

000006a2 <.Loc.223>:
            while (teller < cycles_per_seconde) {
     6a2:	f6 cf       	rjmp	.-20     	; 0x690 <.L26>

000006a4 <.L25>:
        }
    }
    else { // Als gewenste aantal blokjes nog niet bereikt is 2 seconden wachten, en ondertussen 2 keer knipperen.
        TCNT0 = 0;
     6a4:	16 bc       	out	0x26, r1	; 38

000006a6 <.L30>:
        while (teller < 2*cycles_per_seconde) {
     6a6:	89 81       	ldd	r24, Y+1	; 0x01
     6a8:	9a 81       	ldd	r25, Y+2	; 0x02
     6aa:	8a 37       	cpi	r24, 0x7A	; 122
     6ac:	91 05       	cpc	r25, r1
     6ae:	b4 f4       	brge	.+44     	; 0x6dc <.L35>

000006b0 <.Loc.229>:
            if ((TIFR0 & (1 << TOV0))!= 0) {
     6b0:	a8 9b       	sbis	0x15, 0	; 21
     6b2:	f9 cf       	rjmp	.-14     	; 0x6a6 <.L30>

000006b4 <.Loc.231>:
                TIFR0 = (1 << TOV0);
     6b4:	81 e0       	ldi	r24, 0x01	; 1
     6b6:	85 bb       	out	0x15, r24	; 21

000006b8 <.Loc.233>:
                teller++;
     6b8:	89 81       	ldd	r24, Y+1	; 0x01
     6ba:	9a 81       	ldd	r25, Y+2	; 0x02
     6bc:	01 96       	adiw	r24, 0x01	; 1
     6be:	9a 83       	std	Y+2, r25	; 0x02
     6c0:	89 83       	std	Y+1, r24	; 0x01

000006c2 <.Loc.235>:
                if (teller % (cycles_per_seconde/2) == 0) {
     6c2:	89 81       	ldd	r24, Y+1	; 0x01
     6c4:	9a 81       	ldd	r25, Y+2	; 0x02
     6c6:	6e e1       	ldi	r22, 0x1E	; 30
     6c8:	70 e0       	ldi	r23, 0x00	; 0
     6ca:	0e 94 25 09 	call	0x124a	; 0x124a <__divmodhi4>

000006ce <.Loc.237>:
     6ce:	89 2b       	or	r24, r25
     6d0:	51 f7       	brne	.-44     	; 0x6a6 <.L30>

000006d2 <.Loc.238>:
                    LED_2_PORT ^= (1 << LED_2);
     6d2:	85 b1       	in	r24, 0x05	; 5

000006d4 <.Loc.239>:
     6d4:	92 e0       	ldi	r25, 0x02	; 2
     6d6:	89 27       	eor	r24, r25
     6d8:	85 b9       	out	0x05, r24	; 5
     6da:	e5 cf       	rjmp	.-54     	; 0x6a6 <.L30>

000006dc <.L35>:
                }
            }
        }
        LED_2_PORT |= (1 << LED_2);// Zorgen dat lampje uitstaat voor verder rijden
     6dc:	29 9a       	sbi	0x05, 1	; 5

000006de <.Loc.242>:
    }
}
     6de:	0f 90       	pop	r0
     6e0:	0f 90       	pop	r0
     6e2:	df 91       	pop	r29
     6e4:	cf 91       	pop	r28
     6e6:	ff 91       	pop	r31
     6e8:	ef 91       	pop	r30
     6ea:	bf 91       	pop	r27
     6ec:	af 91       	pop	r26
     6ee:	9f 91       	pop	r25
     6f0:	8f 91       	pop	r24
     6f2:	7f 91       	pop	r23
     6f4:	6f 91       	pop	r22
     6f6:	5f 91       	pop	r21
     6f8:	4f 91       	pop	r20
     6fa:	3f 91       	pop	r19
     6fc:	2f 91       	pop	r18
     6fe:	1f 91       	pop	r17
     700:	0f 91       	pop	r16

00000702 <.Loc.243>:
     702:	ff 90       	pop	r15
     704:	ef 90       	pop	r14

00000706 <.Loc.244>:
     706:	0f 90       	pop	r0
     708:	0b be       	out	0x3b, r0	; 59
     70a:	0f 90       	pop	r0
     70c:	0f be       	out	0x3f, r0	; 63
     70e:	0f 90       	pop	r0
     710:	1f 90       	pop	r1
     712:	18 95       	reti

00000714 <__vector_6>:


// infraroodsensor rechts detecteert blokje
ISR(INT5_vect) {
     714:	1f 92       	push	r1
     716:	0f 92       	push	r0
     718:	0f b6       	in	r0, 0x3f	; 63
     71a:	0f 92       	push	r0
     71c:	11 24       	eor	r1, r1
     71e:	0b b6       	in	r0, 0x3b	; 59
     720:	0f 92       	push	r0
     722:	ef 92       	push	r14
     724:	ff 92       	push	r15
     726:	0f 93       	push	r16
     728:	1f 93       	push	r17
     72a:	2f 93       	push	r18
     72c:	3f 93       	push	r19
     72e:	4f 93       	push	r20
     730:	5f 93       	push	r21
     732:	6f 93       	push	r22
     734:	7f 93       	push	r23
     736:	8f 93       	push	r24
     738:	9f 93       	push	r25
     73a:	af 93       	push	r26
     73c:	bf 93       	push	r27
     73e:	ef 93       	push	r30
     740:	ff 93       	push	r31
     742:	cf 93       	push	r28
     744:	df 93       	push	r29
     746:	0f 92       	push	r0
     748:	0f 92       	push	r0
     74a:	cd b7       	in	r28, 0x3d	; 61
     74c:	de b7       	in	r29, 0x3e	; 62

0000074e <.LBB45>:
    return (blokjes_stoppen);
     74e:	e0 90 0c 02 	lds	r14, 0x020C	; 0x80020c <blokjes_stoppen.0>
     752:	f0 90 0d 02 	lds	r15, 0x020D	; 0x80020d <blokjes_stoppen.0+0x1>

00000756 <.LBE45>:
    int blokjes_stoppen = blokjes_stop(0,0); // Kijkt hoeveel blokjes er geteld moeten worden
    int aantal_blokjes = blokjes_gedetecteerd(0); // Past aantal getelde blokjes aan
     756:	80 e0       	ldi	r24, 0x00	; 0
     758:	90 e0       	ldi	r25, 0x00	; 0
     75a:	0e 94 cc 02 	call	0x598	; 0x598 <blokjes_gedetecteerd>

0000075e <.LVL56>:
     75e:	08 2f       	mov	r16, r24
     760:	19 2f       	mov	r17, r25

00000762 <.Loc.255>:
    tm1637_showNumber(aantal_blokjes);
     762:	c8 01       	movw	r24, r16
     764:	0e 94 17 02 	call	0x42e	; 0x42e <tm1637_showNumber>

00000768 <.LVL58>:
    motor_R(0); // Motor uitschakelen
     768:	60 e0       	ldi	r22, 0x00	; 0
     76a:	70 e0       	ldi	r23, 0x00	; 0
     76c:	cb 01       	movw	r24, r22
     76e:	0e 94 11 04 	call	0x822	; 0x822 <motor_R>

00000772 <.LVL59>:
    motor_L(0); // Motor uitschakelen
     772:	60 e0       	ldi	r22, 0x00	; 0
     774:	70 e0       	ldi	r23, 0x00	; 0
     776:	cb 01       	movw	r24, r22
     778:	0e 94 41 04 	call	0x882	; 0x882 <motor_L>

0000077c <.LVL60>:
    volatile int teller = 0;
     77c:	1a 82       	std	Y+2, r1	; 0x02
     77e:	19 82       	std	Y+1, r1	; 0x01

00000780 <.Loc.260>:
    if (aantal_blokjes >= blokjes_stoppen) { // Als het gewenste aantal blokjes bereikt is langzaam knipperen en niet meer verder rijden
     780:	0e 15       	cp	r16, r14
     782:	1f 05       	cpc	r17, r15
     784:	b4 f0       	brlt	.+44     	; 0x7b2 <.L37>

00000786 <.Loc.262>:
        TCNT0 = 0;
     786:	16 bc       	out	0x26, r1	; 38

00000788 <.Loc.264>:
                if ((TIFR0 & (1 << TOV0))!= 0) {
                    TIFR0 = (1 << TOV0);
                    teller++;
                }
            }
            LED_2_PORT ^= (1 << LED_2);
     788:	22 e0       	ldi	r18, 0x02	; 2

0000078a <.Loc.265>:
                    TIFR0 = (1 << TOV0);
     78a:	31 e0       	ldi	r19, 0x01	; 1
     78c:	08 c0       	rjmp	.+16     	; 0x79e <.L38>

0000078e <.L40>:
                if ((TIFR0 & (1 << TOV0))!= 0) {
     78e:	a8 9b       	sbis	0x15, 0	; 21
     790:	06 c0       	rjmp	.+12     	; 0x79e <.L38>

00000792 <.Loc.268>:
                    TIFR0 = (1 << TOV0);
     792:	35 bb       	out	0x15, r19	; 21

00000794 <.Loc.270>:
                    teller++;
     794:	89 81       	ldd	r24, Y+1	; 0x01
     796:	9a 81       	ldd	r25, Y+2	; 0x02
     798:	01 96       	adiw	r24, 0x01	; 1
     79a:	9a 83       	std	Y+2, r25	; 0x02
     79c:	89 83       	std	Y+1, r24	; 0x01

0000079e <.L38>:
            while (teller < cycles_per_seconde) {
     79e:	89 81       	ldd	r24, Y+1	; 0x01
     7a0:	9a 81       	ldd	r25, Y+2	; 0x02
     7a2:	cd 97       	sbiw	r24, 0x3d	; 61
     7a4:	a4 f3       	brlt	.-24     	; 0x78e <.L40>

000007a6 <.Loc.273>:
            LED_2_PORT ^= (1 << LED_2);
     7a6:	85 b1       	in	r24, 0x05	; 5

000007a8 <.Loc.274>:
     7a8:	82 27       	eor	r24, r18
     7aa:	85 b9       	out	0x05, r24	; 5

000007ac <.Loc.275>:
            teller = 0;
     7ac:	1a 82       	std	Y+2, r1	; 0x02
     7ae:	19 82       	std	Y+1, r1	; 0x01

000007b0 <.Loc.277>:
            while (teller < cycles_per_seconde) {
     7b0:	f6 cf       	rjmp	.-20     	; 0x79e <.L38>

000007b2 <.L37>:
        }
    }
    else { // Als gewenste aantal blokjes nog niet bereikt is 2 seconden wachten, en ondertussen 2 keer knipperen.
        TCNT0 = 0;
     7b2:	16 bc       	out	0x26, r1	; 38

000007b4 <.L42>:
        while (teller < 2*cycles_per_seconde) {
     7b4:	89 81       	ldd	r24, Y+1	; 0x01
     7b6:	9a 81       	ldd	r25, Y+2	; 0x02
     7b8:	8a 37       	cpi	r24, 0x7A	; 122
     7ba:	91 05       	cpc	r25, r1
     7bc:	b4 f4       	brge	.+44     	; 0x7ea <.L47>

000007be <.Loc.283>:
            if ((TIFR0 & (1 << TOV0))!= 0) {
     7be:	a8 9b       	sbis	0x15, 0	; 21
     7c0:	f9 cf       	rjmp	.-14     	; 0x7b4 <.L42>

000007c2 <.Loc.285>:
                TIFR0 = (1 << TOV0);
     7c2:	81 e0       	ldi	r24, 0x01	; 1
     7c4:	85 bb       	out	0x15, r24	; 21

000007c6 <.Loc.287>:
                teller++;
     7c6:	89 81       	ldd	r24, Y+1	; 0x01
     7c8:	9a 81       	ldd	r25, Y+2	; 0x02
     7ca:	01 96       	adiw	r24, 0x01	; 1
     7cc:	9a 83       	std	Y+2, r25	; 0x02
     7ce:	89 83       	std	Y+1, r24	; 0x01

000007d0 <.Loc.289>:
                if (teller % (cycles_per_seconde/2) == 0) {
     7d0:	89 81       	ldd	r24, Y+1	; 0x01
     7d2:	9a 81       	ldd	r25, Y+2	; 0x02
     7d4:	6e e1       	ldi	r22, 0x1E	; 30
     7d6:	70 e0       	ldi	r23, 0x00	; 0
     7d8:	0e 94 25 09 	call	0x124a	; 0x124a <__divmodhi4>

000007dc <.Loc.291>:
     7dc:	89 2b       	or	r24, r25
     7de:	51 f7       	brne	.-44     	; 0x7b4 <.L42>

000007e0 <.Loc.292>:
                    LED_2_PORT ^= (1 << LED_2);
     7e0:	85 b1       	in	r24, 0x05	; 5

000007e2 <.Loc.293>:
     7e2:	92 e0       	ldi	r25, 0x02	; 2
     7e4:	89 27       	eor	r24, r25
     7e6:	85 b9       	out	0x05, r24	; 5
     7e8:	e5 cf       	rjmp	.-54     	; 0x7b4 <.L42>

000007ea <.L47>:
                }
            }
        }
        LED_2_PORT |= (1 << LED_2); // Zorgen dat lampje uitstaat voor verder rijden
     7ea:	29 9a       	sbi	0x05, 1	; 5

000007ec <.Loc.296>:
    }
}
     7ec:	0f 90       	pop	r0
     7ee:	0f 90       	pop	r0
     7f0:	df 91       	pop	r29
     7f2:	cf 91       	pop	r28
     7f4:	ff 91       	pop	r31
     7f6:	ef 91       	pop	r30
     7f8:	bf 91       	pop	r27
     7fa:	af 91       	pop	r26
     7fc:	9f 91       	pop	r25
     7fe:	8f 91       	pop	r24
     800:	7f 91       	pop	r23
     802:	6f 91       	pop	r22
     804:	5f 91       	pop	r21
     806:	4f 91       	pop	r20
     808:	3f 91       	pop	r19
     80a:	2f 91       	pop	r18
     80c:	1f 91       	pop	r17
     80e:	0f 91       	pop	r16

00000810 <.Loc.297>:
     810:	ff 90       	pop	r15
     812:	ef 90       	pop	r14

00000814 <.Loc.298>:
     814:	0f 90       	pop	r0
     816:	0b be       	out	0x3b, r0	; 59
     818:	0f 90       	pop	r0
     81a:	0f be       	out	0x3f, r0	; 63
     81c:	0f 90       	pop	r0
     81e:	1f 90       	pop	r1
     820:	18 95       	reti

00000822 <motor_R>:
#include "navigatie_lib.h"
#include "motor_lib.h"
#include "module.h"

void motor_R(float factor)
{
     822:	cf 93       	push	r28
     824:	df 93       	push	r29
     826:	00 d0       	rcall	.+0      	; 0x828 <L0^A>

00000828 <L0^A>:
     828:	0f 92       	push	r0
     82a:	cd b7       	in	r28, 0x3d	; 61
     82c:	de b7       	in	r29, 0x3e	; 62

0000082e <.Loc.2>:
    int motor_PWM_R = PWM * factor;
     82e:	20 e0       	ldi	r18, 0x00	; 0
     830:	30 e4       	ldi	r19, 0x40	; 64
     832:	4c e9       	ldi	r20, 0x9C	; 156
     834:	56 e4       	ldi	r21, 0x46	; 70
     836:	69 83       	std	Y+1, r22	; 0x01
     838:	7a 83       	std	Y+2, r23	; 0x02
     83a:	8b 83       	std	Y+3, r24	; 0x03
     83c:	9c 83       	std	Y+4, r25	; 0x04
     83e:	69 81       	ldd	r22, Y+1	; 0x01
     840:	7a 81       	ldd	r23, Y+2	; 0x02
     842:	8b 81       	ldd	r24, Y+3	; 0x03
     844:	9c 81       	ldd	r25, Y+4	; 0x04

00000846 <.Loc.4>:
     846:	0e 94 ff 0a 	call	0x15fe	; 0x15fe <__mulsf3>

0000084a <.LVL2>:
     84a:	69 83       	std	Y+1, r22	; 0x01
     84c:	7a 83       	std	Y+2, r23	; 0x02
     84e:	8b 83       	std	Y+3, r24	; 0x03
     850:	9c 83       	std	Y+4, r25	; 0x04
     852:	69 81       	ldd	r22, Y+1	; 0x01
     854:	7a 81       	ldd	r23, Y+2	; 0x02
     856:	8b 81       	ldd	r24, Y+3	; 0x03
     858:	9c 81       	ldd	r25, Y+4	; 0x04
     85a:	0e 94 3b 0a 	call	0x1476	; 0x1476 <__fixsfsi>

0000085e <.LVL3>:
     85e:	86 2f       	mov	r24, r22
     860:	97 2f       	mov	r25, r23

00000862 <.Loc.6>:
    if (motor_PWM_R >= TOP_VALUE) motor_PWM_R = TOP_VALUE;
     862:	99 23       	and	r25, r25
     864:	5c f0       	brlt	.+22     	; 0x87c <.L4>

00000866 <.L2>:
    OCR4A = motor_PWM_R;
     866:	90 93 a9 00 	sts	0x00A9, r25	; 0x8000a9 <__TEXT_REGION_LENGTH__+0x7000a9>
     86a:	80 93 a8 00 	sts	0x00A8, r24	; 0x8000a8 <__TEXT_REGION_LENGTH__+0x7000a8>

0000086e <.Loc.10>:
}
     86e:	0f 90       	pop	r0
     870:	0f 90       	pop	r0
     872:	0f 90       	pop	r0
     874:	0f 90       	pop	r0
     876:	df 91       	pop	r29
     878:	cf 91       	pop	r28
     87a:	08 95       	ret

0000087c <.L4>:
    if (motor_PWM_R >= TOP_VALUE) motor_PWM_R = TOP_VALUE;
     87c:	80 e4       	ldi	r24, 0x40	; 64
     87e:	9c e9       	ldi	r25, 0x9C	; 156
     880:	f2 cf       	rjmp	.-28     	; 0x866 <.L2>

00000882 <motor_L>:

void motor_L(float factor)
{
     882:	cf 93       	push	r28
     884:	df 93       	push	r29
     886:	00 d0       	rcall	.+0      	; 0x888 <L0^A>

00000888 <L0^A>:
     888:	0f 92       	push	r0
     88a:	cd b7       	in	r28, 0x3d	; 61
     88c:	de b7       	in	r29, 0x3e	; 62

0000088e <.Loc.14>:
    int motor_PWM_L = PWM * factor;
     88e:	20 e0       	ldi	r18, 0x00	; 0
     890:	30 e4       	ldi	r19, 0x40	; 64
     892:	4c e9       	ldi	r20, 0x9C	; 156
     894:	56 e4       	ldi	r21, 0x46	; 70
     896:	69 83       	std	Y+1, r22	; 0x01
     898:	7a 83       	std	Y+2, r23	; 0x02
     89a:	8b 83       	std	Y+3, r24	; 0x03
     89c:	9c 83       	std	Y+4, r25	; 0x04
     89e:	69 81       	ldd	r22, Y+1	; 0x01
     8a0:	7a 81       	ldd	r23, Y+2	; 0x02
     8a2:	8b 81       	ldd	r24, Y+3	; 0x03
     8a4:	9c 81       	ldd	r25, Y+4	; 0x04

000008a6 <.Loc.16>:
     8a6:	0e 94 ff 0a 	call	0x15fe	; 0x15fe <__mulsf3>

000008aa <.LVL9>:
     8aa:	69 83       	std	Y+1, r22	; 0x01
     8ac:	7a 83       	std	Y+2, r23	; 0x02
     8ae:	8b 83       	std	Y+3, r24	; 0x03
     8b0:	9c 83       	std	Y+4, r25	; 0x04
     8b2:	69 81       	ldd	r22, Y+1	; 0x01
     8b4:	7a 81       	ldd	r23, Y+2	; 0x02
     8b6:	8b 81       	ldd	r24, Y+3	; 0x03
     8b8:	9c 81       	ldd	r25, Y+4	; 0x04
     8ba:	0e 94 3b 0a 	call	0x1476	; 0x1476 <__fixsfsi>

000008be <.LVL10>:
     8be:	86 2f       	mov	r24, r22
     8c0:	97 2f       	mov	r25, r23

000008c2 <.Loc.18>:
    if (motor_PWM_L >= TOP_VALUE) motor_PWM_L = TOP_VALUE;
     8c2:	99 23       	and	r25, r25
     8c4:	5c f0       	brlt	.+22     	; 0x8dc <.L8>

000008c6 <.L6>:
    OCR5A = motor_PWM_L;
     8c6:	90 93 29 01 	sts	0x0129, r25	; 0x800129 <__TEXT_REGION_LENGTH__+0x700129>
     8ca:	80 93 28 01 	sts	0x0128, r24	; 0x800128 <__TEXT_REGION_LENGTH__+0x700128>

000008ce <.Loc.22>:
}
     8ce:	0f 90       	pop	r0
     8d0:	0f 90       	pop	r0
     8d2:	0f 90       	pop	r0
     8d4:	0f 90       	pop	r0
     8d6:	df 91       	pop	r29
     8d8:	cf 91       	pop	r28
     8da:	08 95       	ret

000008dc <.L8>:
    if (motor_PWM_L >= TOP_VALUE) motor_PWM_L = TOP_VALUE;
     8dc:	80 e4       	ldi	r24, 0x40	; 64
     8de:	9c e9       	ldi	r25, 0x9C	; 156
     8e0:	f2 cf       	rjmp	.-28     	; 0x8c6 <.L6>

000008e2 <motor_config>:

void motor_config(int mode, int kant)
{
     8e2:	28 2f       	mov	r18, r24
     8e4:	39 2f       	mov	r19, r25
     8e6:	86 2f       	mov	r24, r22

000008e8 <.Loc.26>:
     8e8:	97 2f       	mov	r25, r23

000008ea <.Loc.27>:
    enum motor_actie actie = mode;
    enum richting motor = kant;
    if (kant == LINKS) // y = 0s
     8ea:	81 30       	cpi	r24, 0x01	; 1
     8ec:	91 05       	cpc	r25, r1
     8ee:	59 f0       	breq	.+22     	; 0x906 <.L17>

000008f0 <.Loc.31>:
                break;
            }
        }
    }

    if (motor == RECHTS) // y = 1
     8f0:	89 2b       	or	r24, r25
     8f2:	41 f4       	brne	.+16     	; 0x904 <.L9>

000008f4 <.Loc.33>:
    {
        switch (actie)
     8f4:	21 30       	cpi	r18, 0x01	; 1
     8f6:	31 05       	cpc	r19, r1
     8f8:	91 f1       	breq	.+100    	; 0x95e <.L15>
     8fa:	22 30       	cpi	r18, 0x02	; 2
     8fc:	31 05       	cpc	r19, r1
     8fe:	c1 f1       	breq	.+112    	; 0x970 <.L16>
     900:	23 2b       	or	r18, r19
     902:	21 f1       	breq	.+72     	; 0x94c <.L18>

00000904 <.L9>:
                PWM_IN_2_PORT |= (1 << PWM_IN_2);   //HIGH
                break;
            }
        }
    }
}
     904:	08 95       	ret

00000906 <.L17>:
        switch (mode)
     906:	21 30       	cpi	r18, 0x01	; 1
     908:	31 05       	cpc	r19, r1
     90a:	71 f0       	breq	.+28     	; 0x928 <.L11>
     90c:	22 30       	cpi	r18, 0x02	; 2
     90e:	31 05       	cpc	r19, r1
     910:	a1 f0       	breq	.+40     	; 0x93a <.L12>
     912:	23 2b       	or	r18, r19
     914:	b9 f7       	brne	.-18     	; 0x904 <.L9>

00000916 <.Loc.36>:
                PWM_IN_3_PORT |= (1 << PWM_IN_3);   //HIGH
     916:	eb e0       	ldi	r30, 0x0B	; 11
     918:	f1 e0       	ldi	r31, 0x01	; 1
     91a:	80 81       	ld	r24, Z

0000091c <.Loc.37>:
     91c:	84 60       	ori	r24, 0x04	; 4
     91e:	80 83       	st	Z, r24

00000920 <.Loc.38>:
                PWM_IN_4_PORT &= ~(1 << PWM_IN_4);  //LOW
     920:	80 81       	ld	r24, Z
     922:	8e 7f       	andi	r24, 0xFE	; 254
     924:	80 83       	st	Z, r24

00000926 <.Loc.40>:
                break;
     926:	08 95       	ret

00000928 <.L11>:
                PWM_IN_3_PORT &= ~(1 << PWM_IN_3);  //LOW
     928:	eb e0       	ldi	r30, 0x0B	; 11
     92a:	f1 e0       	ldi	r31, 0x01	; 1
     92c:	80 81       	ld	r24, Z

0000092e <.Loc.43>:
     92e:	8b 7f       	andi	r24, 0xFB	; 251
     930:	80 83       	st	Z, r24

00000932 <.Loc.44>:
                PWM_IN_4_PORT |= (1 << PWM_IN_4);   //HIGH
     932:	80 81       	ld	r24, Z

00000934 <.Loc.45>:
     934:	81 60       	ori	r24, 0x01	; 1
     936:	80 83       	st	Z, r24

00000938 <.Loc.46>:
                break;
     938:	08 95       	ret

0000093a <.L12>:
                PWM_IN_3_PORT |= (1 << PWM_IN_3);   //HIGH
     93a:	eb e0       	ldi	r30, 0x0B	; 11
     93c:	f1 e0       	ldi	r31, 0x01	; 1
     93e:	80 81       	ld	r24, Z

00000940 <.Loc.48>:
     940:	84 60       	ori	r24, 0x04	; 4
     942:	80 83       	st	Z, r24

00000944 <.Loc.49>:
                PWM_IN_4_PORT |= (1 << PWM_IN_4);   //HIGH
     944:	80 81       	ld	r24, Z

00000946 <.Loc.50>:
     946:	81 60       	ori	r24, 0x01	; 1
     948:	80 83       	st	Z, r24

0000094a <.Loc.51>:
                break;
     94a:	08 95       	ret

0000094c <.L18>:
                PWM_IN_1_PORT |= (1 << PWM_IN_1);   //HIGH
     94c:	eb e0       	ldi	r30, 0x0B	; 11
     94e:	f1 e0       	ldi	r31, 0x01	; 1
     950:	80 81       	ld	r24, Z

00000952 <.Loc.53>:
     952:	80 64       	ori	r24, 0x40	; 64
     954:	80 83       	st	Z, r24

00000956 <.Loc.54>:
                PWM_IN_2_PORT &= ~(1 << PWM_IN_2);  //LOW
     956:	80 81       	ld	r24, Z
     958:	8f 7e       	andi	r24, 0xEF	; 239
     95a:	80 83       	st	Z, r24

0000095c <.Loc.56>:
                break;
     95c:	08 95       	ret

0000095e <.L15>:
                PWM_IN_1_PORT &= ~(1 << PWM_IN_1);  //LOW
     95e:	eb e0       	ldi	r30, 0x0B	; 11
     960:	f1 e0       	ldi	r31, 0x01	; 1
     962:	80 81       	ld	r24, Z

00000964 <.Loc.59>:
     964:	8f 7b       	andi	r24, 0xBF	; 191
     966:	80 83       	st	Z, r24

00000968 <.Loc.60>:
                PWM_IN_2_PORT |= (1 << PWM_IN_2);   //HIGH
     968:	80 81       	ld	r24, Z

0000096a <.Loc.61>:
     96a:	80 61       	ori	r24, 0x10	; 16
     96c:	80 83       	st	Z, r24

0000096e <.Loc.62>:
                break;
     96e:	08 95       	ret

00000970 <.L16>:
                PWM_IN_1_PORT |= (1 << PWM_IN_1);   //HIGH
     970:	eb e0       	ldi	r30, 0x0B	; 11
     972:	f1 e0       	ldi	r31, 0x01	; 1
     974:	80 81       	ld	r24, Z

00000976 <.Loc.64>:
     976:	80 64       	ori	r24, 0x40	; 64
     978:	80 83       	st	Z, r24

0000097a <.Loc.65>:
                PWM_IN_2_PORT |= (1 << PWM_IN_2);   //HIGH
     97a:	80 81       	ld	r24, Z

0000097c <.Loc.66>:
     97c:	80 61       	ori	r24, 0x10	; 16
     97e:	80 83       	st	Z, r24

00000980 <.Loc.67>:
}
     980:	c1 cf       	rjmp	.-126    	; 0x904 <.L9>

00000982 <percentageSteering_R>:
#include "navigatie_lib.h"
#include "motor_lib.h"

//PWM van de motor R bijstellen om in het midden van het pad te rijden
float percentageSteering_R(int diffAfstand)
{
     982:	cf 93       	push	r28
     984:	df 93       	push	r29
     986:	00 d0       	rcall	.+0      	; 0x988 <L0^A>

00000988 <L0^A>:
     988:	0f 92       	push	r0
     98a:	cd b7       	in	r28, 0x3d	; 61
     98c:	de b7       	in	r29, 0x3e	; 62
     98e:	28 2f       	mov	r18, r24
     990:	39 2f       	mov	r19, r25

00000992 <.Loc.2>:
    static float helftPadBreedte = HALF_PAD;
    static float percentageAfwijking = 0;
    if (helftPadBreedte < diffAfstand)  percentageAfwijking = 0;
     992:	20 31       	cpi	r18, 0x10	; 16
     994:	31 05       	cpc	r19, r1
     996:	0c f0       	brlt	.+2      	; 0x99a <.Loc.6>

00000998 <L0^A>:
     998:	41 c0       	rjmp	.+130    	; 0xa1c <.L3>

0000099a <.Loc.6>:
     99a:	c9 01       	movw	r24, r18
     99c:	33 0f       	add	r19, r19
     99e:	aa 0b       	sbc	r26, r26
     9a0:	bb 0b       	sbc	r27, r27

000009a2 <.Loc.8>:
     9a2:	89 83       	std	Y+1, r24	; 0x01
     9a4:	9a 83       	std	Y+2, r25	; 0x02
     9a6:	ab 83       	std	Y+3, r26	; 0x03
     9a8:	bc 83       	std	Y+4, r27	; 0x04
     9aa:	bc 01       	movw	r22, r24
     9ac:	cd 01       	movw	r24, r26
     9ae:	0e 94 73 0a 	call	0x14e6	; 0x14e6 <__floatsisf>

000009b2 <.LVL2>:
    else percentageAfwijking = (helftPadBreedte - diffAfstand)/helftPadBreedte;
     9b2:	26 2f       	mov	r18, r22
     9b4:	37 2f       	mov	r19, r23
     9b6:	48 2f       	mov	r20, r24
     9b8:	59 2f       	mov	r21, r25
     9ba:	60 e0       	ldi	r22, 0x00	; 0
     9bc:	70 e0       	ldi	r23, 0x00	; 0
     9be:	80 e7       	ldi	r24, 0x70	; 112
     9c0:	91 e4       	ldi	r25, 0x41	; 65
     9c2:	0e 94 5c 09 	call	0x12b8	; 0x12b8 <__subsf3>

000009c6 <.LVL3>:
     9c6:	20 e0       	ldi	r18, 0x00	; 0
     9c8:	30 e0       	ldi	r19, 0x00	; 0
     9ca:	40 e7       	ldi	r20, 0x70	; 112
     9cc:	51 e4       	ldi	r21, 0x41	; 65
     9ce:	69 83       	std	Y+1, r22	; 0x01
     9d0:	7a 83       	std	Y+2, r23	; 0x02
     9d2:	8b 83       	std	Y+3, r24	; 0x03
     9d4:	9c 83       	std	Y+4, r25	; 0x04
     9d6:	69 81       	ldd	r22, Y+1	; 0x01
     9d8:	7a 81       	ldd	r23, Y+2	; 0x02
     9da:	8b 81       	ldd	r24, Y+3	; 0x03
     9dc:	9c 81       	ldd	r25, Y+4	; 0x04
     9de:	0e 94 c9 09 	call	0x1392	; 0x1392 <__divsf3>

000009e2 <.LVL4>:
     9e2:	36 2f       	mov	r19, r22
     9e4:	27 2f       	mov	r18, r23

000009e6 <.L2>:
    if (helftPadBreedte < diffAfstand)  percentageAfwijking = 0;
     9e6:	43 2f       	mov	r20, r19
     9e8:	52 2f       	mov	r21, r18
     9ea:	68 2f       	mov	r22, r24
     9ec:	79 2f       	mov	r23, r25
     9ee:	40 93 1a 02 	sts	0x021A, r20	; 0x80021a <percentageAfwijking.5>
     9f2:	50 93 1b 02 	sts	0x021B, r21	; 0x80021b <percentageAfwijking.5+0x1>
     9f6:	60 93 1c 02 	sts	0x021C, r22	; 0x80021c <percentageAfwijking.5+0x2>
     9fa:	70 93 1d 02 	sts	0x021D, r23	; 0x80021d <percentageAfwijking.5+0x3>

000009fe <.Loc.12>:
    return percentageAfwijking;
}
     9fe:	39 83       	std	Y+1, r19	; 0x01
     a00:	2a 83       	std	Y+2, r18	; 0x02
     a02:	8b 83       	std	Y+3, r24	; 0x03
     a04:	9c 83       	std	Y+4, r25	; 0x04
     a06:	69 81       	ldd	r22, Y+1	; 0x01
     a08:	7a 81       	ldd	r23, Y+2	; 0x02
     a0a:	8b 81       	ldd	r24, Y+3	; 0x03
     a0c:	9c 81       	ldd	r25, Y+4	; 0x04
     a0e:	0f 90       	pop	r0
     a10:	0f 90       	pop	r0
     a12:	0f 90       	pop	r0
     a14:	0f 90       	pop	r0
     a16:	df 91       	pop	r29
     a18:	cf 91       	pop	r28
     a1a:	08 95       	ret

00000a1c <.L3>:
     a1c:	30 e0       	ldi	r19, 0x00	; 0
     a1e:	20 e0       	ldi	r18, 0x00	; 0
     a20:	80 e0       	ldi	r24, 0x00	; 0

00000a22 <.Loc.15>:
     a22:	90 e0       	ldi	r25, 0x00	; 0
     a24:	e0 cf       	rjmp	.-64     	; 0x9e6 <.L2>

00000a26 <percentageSteering_L>:

//PWM van de motor L bijstellen om in het midden van het pad te rijden
float percentageSteering_L(int diffAfstand)
{
     a26:	cf 93       	push	r28
     a28:	df 93       	push	r29
     a2a:	00 d0       	rcall	.+0      	; 0xa2c <L0^A>

00000a2c <L0^A>:
     a2c:	0f 92       	push	r0
     a2e:	cd b7       	in	r28, 0x3d	; 61
     a30:	de b7       	in	r29, 0x3e	; 62
     a32:	28 2f       	mov	r18, r24
     a34:	39 2f       	mov	r19, r25

00000a36 <.Loc.18>:
    static float helftPadBreedte = HALF_PAD;
    static float percentageAfwijking = 0;
    if (helftPadBreedte < diffAfstand)  percentageAfwijking = 0;
     a36:	20 31       	cpi	r18, 0x10	; 16
     a38:	31 05       	cpc	r19, r1
     a3a:	0c f0       	brlt	.+2      	; 0xa3e <.Loc.22>

00000a3c <L0^A>:
     a3c:	41 c0       	rjmp	.+130    	; 0xac0 <.L6>

00000a3e <.Loc.22>:
     a3e:	c9 01       	movw	r24, r18
     a40:	33 0f       	add	r19, r19
     a42:	aa 0b       	sbc	r26, r26
     a44:	bb 0b       	sbc	r27, r27

00000a46 <.Loc.24>:
     a46:	89 83       	std	Y+1, r24	; 0x01
     a48:	9a 83       	std	Y+2, r25	; 0x02
     a4a:	ab 83       	std	Y+3, r26	; 0x03
     a4c:	bc 83       	std	Y+4, r27	; 0x04
     a4e:	bc 01       	movw	r22, r24
     a50:	cd 01       	movw	r24, r26
     a52:	0e 94 73 0a 	call	0x14e6	; 0x14e6 <__floatsisf>

00000a56 <.LVL9>:
    else percentageAfwijking = (helftPadBreedte - diffAfstand)/helftPadBreedte;
     a56:	26 2f       	mov	r18, r22
     a58:	37 2f       	mov	r19, r23
     a5a:	48 2f       	mov	r20, r24
     a5c:	59 2f       	mov	r21, r25
     a5e:	60 e0       	ldi	r22, 0x00	; 0
     a60:	70 e0       	ldi	r23, 0x00	; 0
     a62:	80 e7       	ldi	r24, 0x70	; 112
     a64:	91 e4       	ldi	r25, 0x41	; 65
     a66:	0e 94 5c 09 	call	0x12b8	; 0x12b8 <__subsf3>

00000a6a <.LVL10>:
     a6a:	20 e0       	ldi	r18, 0x00	; 0
     a6c:	30 e0       	ldi	r19, 0x00	; 0
     a6e:	40 e7       	ldi	r20, 0x70	; 112
     a70:	51 e4       	ldi	r21, 0x41	; 65
     a72:	69 83       	std	Y+1, r22	; 0x01
     a74:	7a 83       	std	Y+2, r23	; 0x02
     a76:	8b 83       	std	Y+3, r24	; 0x03
     a78:	9c 83       	std	Y+4, r25	; 0x04
     a7a:	69 81       	ldd	r22, Y+1	; 0x01
     a7c:	7a 81       	ldd	r23, Y+2	; 0x02
     a7e:	8b 81       	ldd	r24, Y+3	; 0x03
     a80:	9c 81       	ldd	r25, Y+4	; 0x04
     a82:	0e 94 c9 09 	call	0x1392	; 0x1392 <__divsf3>

00000a86 <.LVL11>:
     a86:	36 2f       	mov	r19, r22
     a88:	27 2f       	mov	r18, r23

00000a8a <.L5>:
    if (helftPadBreedte < diffAfstand)  percentageAfwijking = 0;
     a8a:	43 2f       	mov	r20, r19
     a8c:	52 2f       	mov	r21, r18
     a8e:	68 2f       	mov	r22, r24
     a90:	79 2f       	mov	r23, r25
     a92:	40 93 16 02 	sts	0x0216, r20	; 0x800216 <percentageAfwijking.3>
     a96:	50 93 17 02 	sts	0x0217, r21	; 0x800217 <percentageAfwijking.3+0x1>
     a9a:	60 93 18 02 	sts	0x0218, r22	; 0x800218 <percentageAfwijking.3+0x2>
     a9e:	70 93 19 02 	sts	0x0219, r23	; 0x800219 <percentageAfwijking.3+0x3>

00000aa2 <.Loc.28>:
    return percentageAfwijking;
}
     aa2:	39 83       	std	Y+1, r19	; 0x01
     aa4:	2a 83       	std	Y+2, r18	; 0x02
     aa6:	8b 83       	std	Y+3, r24	; 0x03
     aa8:	9c 83       	std	Y+4, r25	; 0x04
     aaa:	69 81       	ldd	r22, Y+1	; 0x01
     aac:	7a 81       	ldd	r23, Y+2	; 0x02
     aae:	8b 81       	ldd	r24, Y+3	; 0x03
     ab0:	9c 81       	ldd	r25, Y+4	; 0x04
     ab2:	0f 90       	pop	r0
     ab4:	0f 90       	pop	r0
     ab6:	0f 90       	pop	r0
     ab8:	0f 90       	pop	r0
     aba:	df 91       	pop	r29
     abc:	cf 91       	pop	r28
     abe:	08 95       	ret

00000ac0 <.L6>:
     ac0:	30 e0       	ldi	r19, 0x00	; 0
     ac2:	20 e0       	ldi	r18, 0x00	; 0
     ac4:	80 e0       	ldi	r24, 0x00	; 0

00000ac6 <.Loc.31>:
     ac6:	90 e0       	ldi	r25, 0x00	; 0
     ac8:	e0 cf       	rjmp	.-64     	; 0xa8a <.L5>

00000aca <padNavigeren>:

//functie om in het midden van het pad te blijven rijden
void padNavigeren(void)
{
     aca:	cf 93       	push	r28
     acc:	df 93       	push	r29
     ace:	00 d0       	rcall	.+0      	; 0xad0 <L0^A>

00000ad0 <L0^A>:
     ad0:	0f 92       	push	r0
     ad2:	cd b7       	in	r28, 0x3d	; 61
     ad4:	de b7       	in	r29, 0x3e	; 62

00000ad6 <.Loc.33>:
    static unsigned int afstandL = 0;
    static unsigned int afstandR = 0;
    int wandenWeg = 0;
    int count = 0;

    motor_L(1.0);
     ad6:	60 e0       	ldi	r22, 0x00	; 0
     ad8:	70 e0       	ldi	r23, 0x00	; 0
     ada:	80 e8       	ldi	r24, 0x80	; 128
     adc:	9f e3       	ldi	r25, 0x3F	; 63
     ade:	0e 94 41 04 	call	0x882	; 0x882 <motor_L>

00000ae2 <.LVL15>:
    motor_R(1.0);
     ae2:	60 e0       	ldi	r22, 0x00	; 0
     ae4:	70 e0       	ldi	r23, 0x00	; 0
     ae6:	80 e8       	ldi	r24, 0x80	; 128
     ae8:	9f e3       	ldi	r25, 0x3F	; 63
     aea:	0e 94 11 04 	call	0x822	; 0x822 <motor_R>

00000aee <.LVL16>:
    int wandenWeg = 0;
     aee:	1a 82       	std	Y+2, r1	; 0x02
     af0:	19 82       	std	Y+1, r1	; 0x01
     af2:	08 c0       	rjmp	.+16     	; 0xb04 <.L14>

00000af4 <.L8>:
    while (wandenWeg < 2)   //kijken of de wanden twee keer niet gedetecteerd worden
    {
        afstandL = ultrasoonAfstand_L();
        afstandR = ultrasoonAfstand_R();

        if ((ultrasoonAfstand_R() > VERWEG) || (ultrasoonAfstand_L() > VERWEG)) wandenWeg++;    //wanden worden niet gedetecteerd
     af4:	89 81       	ldd	r24, Y+1	; 0x01
     af6:	9a 81       	ldd	r25, Y+2	; 0x02
     af8:	01 96       	adiw	r24, 0x01	; 1
     afa:	9a 83       	std	Y+2, r25	; 0x02
     afc:	89 83       	std	Y+1, r24	; 0x01

00000afe <.Loc.45>:
    while (wandenWeg < 2)   //kijken of de wanden twee keer niet gedetecteerd worden
     afe:	02 97       	sbiw	r24, 0x02	; 2
     b00:	0c f0       	brlt	.+2      	; 0xb04 <.L14>

00000b02 <L0^A>:
     b02:	63 c0       	rjmp	.+198    	; 0xbca <.L21>

00000b04 <.L14>:
        afstandL = ultrasoonAfstand_L();
     b04:	0e 94 c3 08 	call	0x1186	; 0x1186 <ultrasoonAfstand_L>

00000b08 <.LVL20>:
     b08:	90 93 15 02 	sts	0x0215, r25	; 0x800215 <afstandL.2+0x1>
     b0c:	80 93 14 02 	sts	0x0214, r24	; 0x800214 <afstandL.2>

00000b10 <.Loc.49>:
        afstandR = ultrasoonAfstand_R();
     b10:	0e 94 61 08 	call	0x10c2	; 0x10c2 <ultrasoonAfstand_R>

00000b14 <.LVL21>:
     b14:	90 93 13 02 	sts	0x0213, r25	; 0x800213 <afstandR.1+0x1>
     b18:	80 93 12 02 	sts	0x0212, r24	; 0x800212 <afstandR.1>

00000b1c <.Loc.52>:
        if ((ultrasoonAfstand_R() > VERWEG) || (ultrasoonAfstand_L() > VERWEG)) wandenWeg++;    //wanden worden niet gedetecteerd
     b1c:	0e 94 61 08 	call	0x10c2	; 0x10c2 <ultrasoonAfstand_R>

00000b20 <.LVL22>:
     b20:	4f 97       	sbiw	r24, 0x1f	; 31
     b22:	40 f7       	brcc	.-48     	; 0xaf4 <.L8>

00000b24 <.Loc.55>:
     b24:	0e 94 c3 08 	call	0x1186	; 0x1186 <ultrasoonAfstand_L>

00000b28 <.LVL23>:
     b28:	4f 97       	sbiw	r24, 0x1f	; 31
     b2a:	20 f7       	brcc	.-56     	; 0xaf4 <.L8>

00000b2c <.Loc.57>:
        else
        {
            wandenWeg = 0;
            if (afstandL > afstandR)
     b2c:	80 91 14 02 	lds	r24, 0x0214	; 0x800214 <afstandL.2>
     b30:	90 91 15 02 	lds	r25, 0x0215	; 0x800215 <afstandL.2+0x1>
     b34:	20 91 12 02 	lds	r18, 0x0212	; 0x800212 <afstandR.1>
     b38:	30 91 13 02 	lds	r19, 0x0213	; 0x800213 <afstandR.1+0x1>

00000b3c <.Loc.60>:
     b3c:	28 17       	cp	r18, r24
     b3e:	39 07       	cpc	r19, r25
     b40:	70 f0       	brcs	.+28     	; 0xb5e <.L22>

00000b42 <.L12>:
                diffAfstand = afstandL - afstandR;
                motor_L(1.0);
                motor_R(percentageSteering_R(diffAfstand));
            }

            if (afstandR > afstandL)
     b42:	80 91 12 02 	lds	r24, 0x0212	; 0x800212 <afstandR.1>
     b46:	90 91 13 02 	lds	r25, 0x0213	; 0x800213 <afstandR.1+0x1>
     b4a:	20 91 14 02 	lds	r18, 0x0214	; 0x800214 <afstandL.2>
     b4e:	30 91 15 02 	lds	r19, 0x0215	; 0x800215 <afstandL.2+0x1>

00000b52 <.Loc.63>:
     b52:	28 17       	cp	r18, r24
     b54:	39 07       	cpc	r19, r25
     b56:	00 f1       	brcs	.+64     	; 0xb98 <.L23>

00000b58 <.L13>:
    int wandenWeg = 0;
     b58:	1a 82       	std	Y+2, r1	; 0x02
     b5a:	19 82       	std	Y+1, r1	; 0x01

00000b5c <.Loc.66>:
     b5c:	d3 cf       	rjmp	.-90     	; 0xb04 <.L14>

00000b5e <.L22>:
                diffAfstand = afstandL - afstandR;
     b5e:	82 1b       	sub	r24, r18
     b60:	93 0b       	sbc	r25, r19

00000b62 <.Loc.69>:
     b62:	90 93 11 02 	sts	0x0211, r25	; 0x800211 <diffAfstand.0+0x1>
     b66:	80 93 10 02 	sts	0x0210, r24	; 0x800210 <diffAfstand.0>

00000b6a <.Loc.70>:
                motor_L(1.0);
     b6a:	60 e0       	ldi	r22, 0x00	; 0
     b6c:	70 e0       	ldi	r23, 0x00	; 0
     b6e:	80 e8       	ldi	r24, 0x80	; 128
     b70:	9f e3       	ldi	r25, 0x3F	; 63
     b72:	0e 94 41 04 	call	0x882	; 0x882 <motor_L>

00000b76 <.LVL27>:
                motor_R(percentageSteering_R(diffAfstand));
     b76:	80 91 10 02 	lds	r24, 0x0210	; 0x800210 <diffAfstand.0>
     b7a:	90 91 11 02 	lds	r25, 0x0211	; 0x800211 <diffAfstand.0+0x1>
     b7e:	0e 94 c1 04 	call	0x982	; 0x982 <percentageSteering_R>

00000b82 <.LVL28>:
     b82:	69 83       	std	Y+1, r22	; 0x01
     b84:	7a 83       	std	Y+2, r23	; 0x02
     b86:	8b 83       	std	Y+3, r24	; 0x03
     b88:	9c 83       	std	Y+4, r25	; 0x04
     b8a:	69 81       	ldd	r22, Y+1	; 0x01
     b8c:	7a 81       	ldd	r23, Y+2	; 0x02
     b8e:	8b 81       	ldd	r24, Y+3	; 0x03
     b90:	9c 81       	ldd	r25, Y+4	; 0x04
     b92:	0e 94 11 04 	call	0x822	; 0x822 <motor_R>

00000b96 <.LVL29>:
     b96:	d5 cf       	rjmp	.-86     	; 0xb42 <.L12>

00000b98 <.L23>:
            {
                diffAfstand = afstandR - afstandL;
     b98:	82 1b       	sub	r24, r18
     b9a:	93 0b       	sbc	r25, r19

00000b9c <.Loc.74>:
     b9c:	90 93 11 02 	sts	0x0211, r25	; 0x800211 <diffAfstand.0+0x1>
     ba0:	80 93 10 02 	sts	0x0210, r24	; 0x800210 <diffAfstand.0>

00000ba4 <.Loc.75>:
                motor_L(percentageSteering_L(diffAfstand));
     ba4:	0e 94 13 05 	call	0xa26	; 0xa26 <percentageSteering_L>

00000ba8 <.LVL30>:
     ba8:	69 83       	std	Y+1, r22	; 0x01
     baa:	7a 83       	std	Y+2, r23	; 0x02
     bac:	8b 83       	std	Y+3, r24	; 0x03
     bae:	9c 83       	std	Y+4, r25	; 0x04
     bb0:	69 81       	ldd	r22, Y+1	; 0x01
     bb2:	7a 81       	ldd	r23, Y+2	; 0x02
     bb4:	8b 81       	ldd	r24, Y+3	; 0x03
     bb6:	9c 81       	ldd	r25, Y+4	; 0x04
     bb8:	0e 94 41 04 	call	0x882	; 0x882 <motor_L>

00000bbc <.LVL31>:
                motor_R(1.0);
     bbc:	60 e0       	ldi	r22, 0x00	; 0
     bbe:	70 e0       	ldi	r23, 0x00	; 0
     bc0:	80 e8       	ldi	r24, 0x80	; 128
     bc2:	9f e3       	ldi	r25, 0x3F	; 63
     bc4:	0e 94 11 04 	call	0x822	; 0x822 <motor_R>

00000bc8 <.LVL32>:
     bc8:	c7 cf       	rjmp	.-114    	; 0xb58 <.L13>

00000bca <.L21>:
            }
        }
    }
    motor_R(1.0);
     bca:	60 e0       	ldi	r22, 0x00	; 0
     bcc:	70 e0       	ldi	r23, 0x00	; 0
     bce:	80 e8       	ldi	r24, 0x80	; 128
     bd0:	9f e3       	ldi	r25, 0x3F	; 63
     bd2:	0e 94 11 04 	call	0x822	; 0x822 <motor_R>

00000bd6 <.LVL34>:
    motor_L(1.0);
     bd6:	60 e0       	ldi	r22, 0x00	; 0
     bd8:	70 e0       	ldi	r23, 0x00	; 0
     bda:	80 e8       	ldi	r24, 0x80	; 128
     bdc:	9f e3       	ldi	r25, 0x3F	; 63
     bde:	0e 94 41 04 	call	0x882	; 0x882 <motor_L>

00000be2 <.LVL35>:

    //voor bij het einde van het pad doorrijden
    TCNT3 = RESET_VALUE_TIMER3;
     be2:	86 e9       	ldi	r24, 0x96	; 150
     be4:	97 ee       	ldi	r25, 0xE7	; 231
     be6:	90 93 95 00 	sts	0x0095, r25	; 0x800095 <__TEXT_REGION_LENGTH__+0x700095>
     bea:	80 93 94 00 	sts	0x0094, r24	; 0x800094 <__TEXT_REGION_LENGTH__+0x700094>

00000bee <.Loc.81>:
    TCCR3A = 0;
     bee:	10 92 90 00 	sts	0x0090, r1	; 0x800090 <__TEXT_REGION_LENGTH__+0x700090>

00000bf2 <.Loc.83>:
    TCCR3B = (1 << CS32)|(0 << CS31)|(0 << CS30);
     bf2:	84 e0       	ldi	r24, 0x04	; 4
     bf4:	80 93 91 00 	sts	0x0091, r24	; 0x800091 <__TEXT_REGION_LENGTH__+0x700091>

00000bf8 <.Loc.85>:
    LED_1_PORT &= ~(1 << LED_1);
     bf8:	2a 98       	cbi	0x05, 2	; 5
     bfa:	86 e0       	ldi	r24, 0x06	; 6
     bfc:	90 e0       	ldi	r25, 0x00	; 0

00000bfe <.Loc.87>:
    while (1)
    {
        if (TIFR3 & (1 << TOV3))
        {
            if (++count >= 6) {break;}
            TIFR3 = (1 << TOV3);
     bfe:	41 e0       	ldi	r20, 0x01	; 1

00000c00 <.Loc.88>:
            TCNT3 = RESET_VALUE_TIMER3;
     c00:	e4 e9       	ldi	r30, 0x94	; 148
     c02:	f0 e0       	ldi	r31, 0x00	; 0
     c04:	26 e9       	ldi	r18, 0x96	; 150
     c06:	37 ee       	ldi	r19, 0xE7	; 231

00000c08 <.L15>:
        if (TIFR3 & (1 << TOV3))
     c08:	c0 9b       	sbis	0x18, 0	; 24
     c0a:	fe cf       	rjmp	.-4      	; 0xc08 <.L15>

00000c0c <.Loc.92>:
            if (++count >= 6) {break;}
     c0c:	01 97       	sbiw	r24, 0x01	; 1

00000c0e <.Loc.94>:
     c0e:	00 97       	sbiw	r24, 0x00	; 0
     c10:	21 f0       	breq	.+8      	; 0xc1a <.L16>

00000c12 <.Loc.95>:
            TIFR3 = (1 << TOV3);
     c12:	48 bb       	out	0x18, r20	; 24

00000c14 <.Loc.97>:
            TCNT3 = RESET_VALUE_TIMER3;
     c14:	31 83       	std	Z+1, r19	; 0x01
     c16:	20 83       	st	Z, r18
     c18:	f7 cf       	rjmp	.-18     	; 0xc08 <.L15>

00000c1a <.L16>:
        }
    }
    LED_2_PORT &= ~(1 << LED_2);
     c1a:	29 98       	cbi	0x05, 1	; 5

00000c1c <.Loc.101>:
}
     c1c:	0f 90       	pop	r0
     c1e:	0f 90       	pop	r0
     c20:	0f 90       	pop	r0
     c22:	0f 90       	pop	r0
     c24:	df 91       	pop	r29
     c26:	cf 91       	pop	r28
     c28:	08 95       	ret

00000c2a <kerenR>:

//functie voor het keren naar rechts
void kerenR(void)
{
     c2a:	2f 92       	push	r2
     c2c:	3f 92       	push	r3
     c2e:	4f 92       	push	r4
     c30:	5f 92       	push	r5
     c32:	6f 92       	push	r6
     c34:	7f 92       	push	r7
     c36:	8f 92       	push	r8
     c38:	9f 92       	push	r9
     c3a:	bf 92       	push	r11
     c3c:	cf 92       	push	r12
     c3e:	df 92       	push	r13
     c40:	ef 92       	push	r14
     c42:	ff 92       	push	r15
     c44:	0f 93       	push	r16
     c46:	1f 93       	push	r17
     c48:	cf 93       	push	r28
     c4a:	df 93       	push	r29

00000c4c <.Loc.103>:
    int teller = 0;
    int count = 0;
    int temp = 0;
    while(temp == 0)
    {
    TCNT3 = RESET_VALUE_TIMER3;
     c4c:	04 e9       	ldi	r16, 0x94	; 148
     c4e:	10 e0       	ldi	r17, 0x00	; 0
     c50:	0f 2e       	mov	r0, r31
     c52:	f6 e9       	ldi	r31, 0x96	; 150
     c54:	ef 2e       	mov	r14, r31
     c56:	f7 ee       	ldi	r31, 0xE7	; 231
     c58:	ff 2e       	mov	r15, r31
     c5a:	f0 2d       	mov	r31, r0

00000c5c <.Loc.108>:
    TCCR3A = 0;
     c5c:	0f 2e       	mov	r0, r31
     c5e:	f0 e9       	ldi	r31, 0x90	; 144
     c60:	2f 2e       	mov	r2, r31
     c62:	31 2c       	mov	r3, r1
     c64:	f0 2d       	mov	r31, r0

00000c66 <.Loc.109>:
    TCCR3B = (1 << CS32)|(0 << CS31)|(0 << CS30);
     c66:	0f 2e       	mov	r0, r31
     c68:	f1 e9       	ldi	r31, 0x91	; 145
     c6a:	4f 2e       	mov	r4, r31
     c6c:	51 2c       	mov	r5, r1
     c6e:	f0 2d       	mov	r31, r0

00000c70 <.Loc.110>:
    TCNT2 = 6;
     c70:	c2 eb       	ldi	r28, 0xB2	; 178
     c72:	d0 e0       	ldi	r29, 0x00	; 0
     c74:	0f 2e       	mov	r0, r31
     c76:	f6 e0       	ldi	r31, 0x06	; 6
     c78:	cf 2e       	mov	r12, r31
     c7a:	f0 2d       	mov	r31, r0

00000c7c <.Loc.111>:
    TCCR2A = 0;
     c7c:	0f 2e       	mov	r0, r31
     c7e:	f0 eb       	ldi	r31, 0xB0	; 176
     c80:	6f 2e       	mov	r6, r31
     c82:	71 2c       	mov	r7, r1
     c84:	f0 2d       	mov	r31, r0

00000c86 <.Loc.112>:
    TCCR2B = (0 << CS22)|(1 << CS21) | (1 << CS20);
     c86:	0f 2e       	mov	r0, r31
     c88:	f1 eb       	ldi	r31, 0xB1	; 177
     c8a:	8f 2e       	mov	r8, r31
     c8c:	91 2c       	mov	r9, r1
     c8e:	f0 2d       	mov	r31, r0
     c90:	0f 2e       	mov	r0, r31
     c92:	f3 e0       	ldi	r31, 0x03	; 3
     c94:	bf 2e       	mov	r11, r31
     c96:	f0 2d       	mov	r31, r0

00000c98 <.Loc.113>:
        {
            if (++count >= 5)
            {
                break;
            }
            TIFR3 = (1 << TOV3);
     c98:	dd 24       	eor	r13, r13
     c9a:	d3 94       	inc	r13

00000c9c <.Loc.114>:
    while(temp == 0)
     c9c:	1b c0       	rjmp	.+54     	; 0xcd4 <.L25>

00000c9e <.L27>:
            TCNT3 = RESET_VALUE_TIMER3;
        }
    }
    motor_L(1);
     c9e:	60 e0       	ldi	r22, 0x00	; 0
     ca0:	70 e0       	ldi	r23, 0x00	; 0
     ca2:	80 e8       	ldi	r24, 0x80	; 128
     ca4:	9f e3       	ldi	r25, 0x3F	; 63
     ca6:	0e 94 41 04 	call	0x882	; 0x882 <motor_L>

00000caa <.LVL42>:
    motor_R(1);
     caa:	60 e0       	ldi	r22, 0x00	; 0
     cac:	70 e0       	ldi	r23, 0x00	; 0
     cae:	80 e8       	ldi	r24, 0x80	; 128
     cb0:	9f e3       	ldi	r25, 0x3F	; 63
     cb2:	0e 94 11 04 	call	0x822	; 0x822 <motor_R>

00000cb6 <.LVL43>:

    TCNT2 = 6;
     cb6:	c8 82       	st	Y, r12

00000cb8 <.Loc.119>:
     cb8:	80 e9       	ldi	r24, 0x90	; 144
     cba:	91 e0       	ldi	r25, 0x01	; 1

00000cbc <.L29>:
    count = 0;
    while (1)
    {
        if (TIFR2 & (1 << TOV2))
     cbc:	b8 9b       	sbis	0x17, 0	; 23
     cbe:	fe cf       	rjmp	.-4      	; 0xcbc <.L29>

00000cc0 <.Loc.124>:
        {
            if (++count >= 400)
     cc0:	01 97       	sbiw	r24, 0x01	; 1

00000cc2 <.Loc.126>:
     cc2:	00 97       	sbiw	r24, 0x00	; 0
     cc4:	19 f0       	breq	.+6      	; 0xccc <.L30>

00000cc6 <.Loc.127>:
            {
                break;
            }
            TIFR2 = (1 << TOV2);
     cc6:	d7 ba       	out	0x17, r13	; 23

00000cc8 <.Loc.129>:
            TCNT2 = 6;
     cc8:	c8 82       	st	Y, r12
     cca:	f8 cf       	rjmp	.-16     	; 0xcbc <.L29>

00000ccc <.L30>:
        }
    }
    teller++;
    if (ultrasoonAfstand_L() < 20) {temp = 1;}
     ccc:	0e 94 c3 08 	call	0x1186	; 0x1186 <ultrasoonAfstand_L>

00000cd0 <.LVL49>:
     cd0:	44 97       	sbiw	r24, 0x14	; 20
     cd2:	20 f1       	brcs	.+72     	; 0xd1c <.L35>

00000cd4 <.L25>:
    TCNT3 = RESET_VALUE_TIMER3;
     cd4:	f8 01       	movw	r30, r16
     cd6:	f1 82       	std	Z+1, r15	; 0x01
     cd8:	e0 82       	st	Z, r14

00000cda <.Loc.138>:
    TCCR3A = 0;
     cda:	f1 01       	movw	r30, r2
     cdc:	10 82       	st	Z, r1

00000cde <.Loc.140>:
    TCCR3B = (1 << CS32)|(0 << CS31)|(0 << CS30);
     cde:	84 e0       	ldi	r24, 0x04	; 4
     ce0:	f2 01       	movw	r30, r4
     ce2:	80 83       	st	Z, r24

00000ce4 <.Loc.142>:
    TCNT2 = 6;
     ce4:	c8 82       	st	Y, r12

00000ce6 <.Loc.144>:
    TCCR2A = 0;
     ce6:	f3 01       	movw	r30, r6
     ce8:	10 82       	st	Z, r1

00000cea <.Loc.146>:
    TCCR2B = (0 << CS22)|(1 << CS21) | (1 << CS20);
     cea:	f4 01       	movw	r30, r8
     cec:	b0 82       	st	Z, r11

00000cee <.Loc.148>:
    motor_L(0);
     cee:	60 e0       	ldi	r22, 0x00	; 0
     cf0:	70 e0       	ldi	r23, 0x00	; 0
     cf2:	cb 01       	movw	r24, r22
     cf4:	0e 94 41 04 	call	0x882	; 0x882 <motor_L>

00000cf8 <.LVL51>:
    motor_R(1);
     cf8:	60 e0       	ldi	r22, 0x00	; 0
     cfa:	70 e0       	ldi	r23, 0x00	; 0
     cfc:	80 e8       	ldi	r24, 0x80	; 128
     cfe:	9f e3       	ldi	r25, 0x3F	; 63
     d00:	0e 94 11 04 	call	0x822	; 0x822 <motor_R>

00000d04 <.LVL52>:
     d04:	85 e0       	ldi	r24, 0x05	; 5
     d06:	90 e0       	ldi	r25, 0x00	; 0

00000d08 <.L26>:
        if (TIFR3 & (1 << TOV3))
     d08:	c0 9b       	sbis	0x18, 0	; 24
     d0a:	fe cf       	rjmp	.-4      	; 0xd08 <.L26>

00000d0c <.Loc.155>:
            if (++count >= 5)
     d0c:	01 97       	sbiw	r24, 0x01	; 1

00000d0e <.Loc.157>:
     d0e:	00 97       	sbiw	r24, 0x00	; 0
     d10:	31 f2       	breq	.-116    	; 0xc9e <.L27>

00000d12 <.Loc.158>:
            TIFR3 = (1 << TOV3);
     d12:	d8 ba       	out	0x18, r13	; 24

00000d14 <.Loc.160>:
            TCNT3 = RESET_VALUE_TIMER3;
     d14:	f8 01       	movw	r30, r16
     d16:	f1 82       	std	Z+1, r15	; 0x01
     d18:	e0 82       	st	Z, r14
     d1a:	f6 cf       	rjmp	.-20     	; 0xd08 <.L26>

00000d1c <.L35>:
    }
}
     d1c:	df 91       	pop	r29
     d1e:	cf 91       	pop	r28
     d20:	1f 91       	pop	r17
     d22:	0f 91       	pop	r16
     d24:	ff 90       	pop	r15
     d26:	ef 90       	pop	r14
     d28:	df 90       	pop	r13
     d2a:	cf 90       	pop	r12
     d2c:	bf 90       	pop	r11
     d2e:	9f 90       	pop	r9
     d30:	8f 90       	pop	r8
     d32:	7f 90       	pop	r7
     d34:	6f 90       	pop	r6
     d36:	5f 90       	pop	r5
     d38:	4f 90       	pop	r4
     d3a:	3f 90       	pop	r3
     d3c:	2f 90       	pop	r2
     d3e:	08 95       	ret

00000d40 <kerenLKlein>:

//functie om te keren naar links bij een kleine bocht
void kerenLKlein(void)
{
     d40:	2f 92       	push	r2
     d42:	3f 92       	push	r3
     d44:	4f 92       	push	r4
     d46:	5f 92       	push	r5
     d48:	6f 92       	push	r6
     d4a:	7f 92       	push	r7
     d4c:	8f 92       	push	r8
     d4e:	9f 92       	push	r9
     d50:	bf 92       	push	r11
     d52:	cf 92       	push	r12
     d54:	df 92       	push	r13
     d56:	ef 92       	push	r14
     d58:	ff 92       	push	r15
     d5a:	0f 93       	push	r16
     d5c:	1f 93       	push	r17
     d5e:	cf 93       	push	r28
     d60:	df 93       	push	r29

00000d62 <.Loc.164>:
    int teller = 0;
    int count = 0;
    int temp = 0;
    while(temp == 0)
    {
    TCNT3 = RESET_VALUE_TIMER3;
     d62:	04 e9       	ldi	r16, 0x94	; 148
     d64:	10 e0       	ldi	r17, 0x00	; 0
     d66:	0f 2e       	mov	r0, r31
     d68:	f6 e9       	ldi	r31, 0x96	; 150
     d6a:	ef 2e       	mov	r14, r31
     d6c:	f7 ee       	ldi	r31, 0xE7	; 231
     d6e:	ff 2e       	mov	r15, r31
     d70:	f0 2d       	mov	r31, r0

00000d72 <.Loc.169>:
    TCCR3A = 0;
     d72:	0f 2e       	mov	r0, r31
     d74:	f0 e9       	ldi	r31, 0x90	; 144
     d76:	2f 2e       	mov	r2, r31
     d78:	31 2c       	mov	r3, r1
     d7a:	f0 2d       	mov	r31, r0

00000d7c <.Loc.170>:
    TCCR3B = (1 << CS32)|(0 << CS31)|(0 << CS30);
     d7c:	0f 2e       	mov	r0, r31
     d7e:	f1 e9       	ldi	r31, 0x91	; 145
     d80:	4f 2e       	mov	r4, r31
     d82:	51 2c       	mov	r5, r1
     d84:	f0 2d       	mov	r31, r0

00000d86 <.Loc.171>:
    TCNT2 = 6;
     d86:	c2 eb       	ldi	r28, 0xB2	; 178
     d88:	d0 e0       	ldi	r29, 0x00	; 0
     d8a:	0f 2e       	mov	r0, r31
     d8c:	f6 e0       	ldi	r31, 0x06	; 6
     d8e:	cf 2e       	mov	r12, r31
     d90:	f0 2d       	mov	r31, r0

00000d92 <.Loc.172>:
    TCCR2A = 0;
     d92:	0f 2e       	mov	r0, r31
     d94:	f0 eb       	ldi	r31, 0xB0	; 176
     d96:	6f 2e       	mov	r6, r31
     d98:	71 2c       	mov	r7, r1
     d9a:	f0 2d       	mov	r31, r0

00000d9c <.Loc.173>:
    TCCR2B = (0 << CS22)|(1 << CS21) | (1 << CS20);
     d9c:	0f 2e       	mov	r0, r31
     d9e:	f1 eb       	ldi	r31, 0xB1	; 177
     da0:	8f 2e       	mov	r8, r31
     da2:	91 2c       	mov	r9, r1
     da4:	f0 2d       	mov	r31, r0
     da6:	0f 2e       	mov	r0, r31
     da8:	f3 e0       	ldi	r31, 0x03	; 3
     daa:	bf 2e       	mov	r11, r31
     dac:	f0 2d       	mov	r31, r0

00000dae <.Loc.174>:
        {
            if (++count >= 5)
            {
                break;
            }
            TIFR3 = (1 << TOV3);
     dae:	dd 24       	eor	r13, r13
     db0:	d3 94       	inc	r13

00000db2 <.Loc.175>:
    while(temp == 0)
     db2:	1b c0       	rjmp	.+54     	; 0xdea <.L37>

00000db4 <.L39>:
            TCNT3 = RESET_VALUE_TIMER3;
        }
    }
    motor_L(1);
     db4:	60 e0       	ldi	r22, 0x00	; 0
     db6:	70 e0       	ldi	r23, 0x00	; 0
     db8:	80 e8       	ldi	r24, 0x80	; 128
     dba:	9f e3       	ldi	r25, 0x3F	; 63
     dbc:	0e 94 41 04 	call	0x882	; 0x882 <motor_L>

00000dc0 <.LVL59>:
    motor_R(1);
     dc0:	60 e0       	ldi	r22, 0x00	; 0
     dc2:	70 e0       	ldi	r23, 0x00	; 0
     dc4:	80 e8       	ldi	r24, 0x80	; 128
     dc6:	9f e3       	ldi	r25, 0x3F	; 63
     dc8:	0e 94 11 04 	call	0x822	; 0x822 <motor_R>

00000dcc <.LVL60>:

    TCNT2 = 6;
     dcc:	c8 82       	st	Y, r12

00000dce <.Loc.180>:
     dce:	80 e9       	ldi	r24, 0x90	; 144
     dd0:	91 e0       	ldi	r25, 0x01	; 1

00000dd2 <.L41>:
    count = 0;
    while (1)
    {
        if (TIFR2 & (1 << TOV2))
     dd2:	b8 9b       	sbis	0x17, 0	; 23
     dd4:	fe cf       	rjmp	.-4      	; 0xdd2 <.L41>

00000dd6 <.Loc.185>:
        {
            if (++count >= 400)     ///WP COUNT -> 300
     dd6:	01 97       	sbiw	r24, 0x01	; 1

00000dd8 <.Loc.187>:
     dd8:	00 97       	sbiw	r24, 0x00	; 0
     dda:	19 f0       	breq	.+6      	; 0xde2 <.L42>

00000ddc <.Loc.188>:
            {
                break;
            }
            TIFR2 = (1 << TOV2);
     ddc:	d7 ba       	out	0x17, r13	; 23

00000dde <.Loc.190>:
            TCNT2 = 6;
     dde:	c8 82       	st	Y, r12
     de0:	f8 cf       	rjmp	.-16     	; 0xdd2 <.L41>

00000de2 <.L42>:
        }
    }
    teller++;
    //if (ultrasoonAfstand_L() < 20) {temp = 1;}
    if (ultrasoonAfstand_R() < 20) {temp = 1;}
     de2:	0e 94 61 08 	call	0x10c2	; 0x10c2 <ultrasoonAfstand_R>

00000de6 <.LVL66>:
     de6:	44 97       	sbiw	r24, 0x14	; 20
     de8:	20 f1       	brcs	.+72     	; 0xe32 <.L47>

00000dea <.L37>:
    TCNT3 = RESET_VALUE_TIMER3;
     dea:	f8 01       	movw	r30, r16
     dec:	f1 82       	std	Z+1, r15	; 0x01
     dee:	e0 82       	st	Z, r14

00000df0 <.Loc.199>:
    TCCR3A = 0;
     df0:	f1 01       	movw	r30, r2
     df2:	10 82       	st	Z, r1

00000df4 <.Loc.201>:
    TCCR3B = (1 << CS32)|(0 << CS31)|(0 << CS30);
     df4:	84 e0       	ldi	r24, 0x04	; 4
     df6:	f2 01       	movw	r30, r4
     df8:	80 83       	st	Z, r24

00000dfa <.Loc.203>:
    TCNT2 = 6;
     dfa:	c8 82       	st	Y, r12

00000dfc <.Loc.205>:
    TCCR2A = 0;
     dfc:	f3 01       	movw	r30, r6
     dfe:	10 82       	st	Z, r1

00000e00 <.Loc.207>:
    TCCR2B = (0 << CS22)|(1 << CS21) | (1 << CS20);
     e00:	f4 01       	movw	r30, r8
     e02:	b0 82       	st	Z, r11

00000e04 <.Loc.209>:
    motor_L(1);
     e04:	60 e0       	ldi	r22, 0x00	; 0
     e06:	70 e0       	ldi	r23, 0x00	; 0
     e08:	80 e8       	ldi	r24, 0x80	; 128
     e0a:	9f e3       	ldi	r25, 0x3F	; 63
     e0c:	0e 94 41 04 	call	0x882	; 0x882 <motor_L>

00000e10 <.LVL68>:
    motor_R(0);
     e10:	60 e0       	ldi	r22, 0x00	; 0
     e12:	70 e0       	ldi	r23, 0x00	; 0
     e14:	cb 01       	movw	r24, r22
     e16:	0e 94 11 04 	call	0x822	; 0x822 <motor_R>

00000e1a <.LVL69>:
     e1a:	85 e0       	ldi	r24, 0x05	; 5
     e1c:	90 e0       	ldi	r25, 0x00	; 0

00000e1e <.L38>:
        if (TIFR3 & (1 << TOV3))
     e1e:	c0 9b       	sbis	0x18, 0	; 24
     e20:	fe cf       	rjmp	.-4      	; 0xe1e <.L38>

00000e22 <.Loc.216>:
            if (++count >= 5)
     e22:	01 97       	sbiw	r24, 0x01	; 1

00000e24 <.Loc.218>:
     e24:	00 97       	sbiw	r24, 0x00	; 0
     e26:	31 f2       	breq	.-116    	; 0xdb4 <.L39>

00000e28 <.Loc.219>:
            TIFR3 = (1 << TOV3);
     e28:	d8 ba       	out	0x18, r13	; 24

00000e2a <.Loc.221>:
            TCNT3 = RESET_VALUE_TIMER3;
     e2a:	f8 01       	movw	r30, r16
     e2c:	f1 82       	std	Z+1, r15	; 0x01
     e2e:	e0 82       	st	Z, r14
     e30:	f6 cf       	rjmp	.-20     	; 0xe1e <.L38>

00000e32 <.L47>:
    }
}
     e32:	df 91       	pop	r29
     e34:	cf 91       	pop	r28
     e36:	1f 91       	pop	r17
     e38:	0f 91       	pop	r16
     e3a:	ff 90       	pop	r15
     e3c:	ef 90       	pop	r14
     e3e:	df 90       	pop	r13
     e40:	cf 90       	pop	r12
     e42:	bf 90       	pop	r11
     e44:	9f 90       	pop	r9
     e46:	8f 90       	pop	r8
     e48:	7f 90       	pop	r7
     e4a:	6f 90       	pop	r6
     e4c:	5f 90       	pop	r5
     e4e:	4f 90       	pop	r4
     e50:	3f 90       	pop	r3
     e52:	2f 90       	pop	r2
     e54:	08 95       	ret

00000e56 <kerenLGroot>:

//functie om te keren naar links bij een grote bocht
void kerenLGroot(void)
{
     e56:	2f 92       	push	r2
     e58:	3f 92       	push	r3
     e5a:	4f 92       	push	r4
     e5c:	5f 92       	push	r5
     e5e:	6f 92       	push	r6
     e60:	7f 92       	push	r7
     e62:	8f 92       	push	r8
     e64:	9f 92       	push	r9
     e66:	bf 92       	push	r11
     e68:	cf 92       	push	r12
     e6a:	df 92       	push	r13
     e6c:	ef 92       	push	r14
     e6e:	ff 92       	push	r15
     e70:	0f 93       	push	r16
     e72:	1f 93       	push	r17
     e74:	cf 93       	push	r28
     e76:	df 93       	push	r29

00000e78 <.Loc.225>:
    int teller = 0;
    int count = 0;
    int temp = 0;
    while(temp == 0)
    {
    TCNT3 = RESET_VALUE_TIMER3;
     e78:	04 e9       	ldi	r16, 0x94	; 148
     e7a:	10 e0       	ldi	r17, 0x00	; 0
     e7c:	0f 2e       	mov	r0, r31
     e7e:	f6 e9       	ldi	r31, 0x96	; 150
     e80:	ef 2e       	mov	r14, r31
     e82:	f7 ee       	ldi	r31, 0xE7	; 231
     e84:	ff 2e       	mov	r15, r31
     e86:	f0 2d       	mov	r31, r0

00000e88 <.Loc.230>:
    TCCR3A = 0;
     e88:	0f 2e       	mov	r0, r31
     e8a:	f0 e9       	ldi	r31, 0x90	; 144
     e8c:	2f 2e       	mov	r2, r31
     e8e:	31 2c       	mov	r3, r1
     e90:	f0 2d       	mov	r31, r0

00000e92 <.Loc.231>:
    TCCR3B = (1 << CS32)|(0 << CS31)|(0 << CS30);
     e92:	0f 2e       	mov	r0, r31
     e94:	f1 e9       	ldi	r31, 0x91	; 145
     e96:	4f 2e       	mov	r4, r31
     e98:	51 2c       	mov	r5, r1
     e9a:	f0 2d       	mov	r31, r0

00000e9c <.Loc.232>:
    TCNT2 = 6;
     e9c:	c2 eb       	ldi	r28, 0xB2	; 178
     e9e:	d0 e0       	ldi	r29, 0x00	; 0
     ea0:	0f 2e       	mov	r0, r31
     ea2:	f6 e0       	ldi	r31, 0x06	; 6
     ea4:	cf 2e       	mov	r12, r31
     ea6:	f0 2d       	mov	r31, r0

00000ea8 <.Loc.233>:
    TCCR2A = 0;
     ea8:	0f 2e       	mov	r0, r31
     eaa:	f0 eb       	ldi	r31, 0xB0	; 176
     eac:	6f 2e       	mov	r6, r31
     eae:	71 2c       	mov	r7, r1
     eb0:	f0 2d       	mov	r31, r0

00000eb2 <.Loc.234>:
    TCCR2B = (0 << CS22)|(1 << CS21) | (1 << CS20);
     eb2:	0f 2e       	mov	r0, r31
     eb4:	f1 eb       	ldi	r31, 0xB1	; 177
     eb6:	8f 2e       	mov	r8, r31
     eb8:	91 2c       	mov	r9, r1
     eba:	f0 2d       	mov	r31, r0
     ebc:	0f 2e       	mov	r0, r31
     ebe:	f3 e0       	ldi	r31, 0x03	; 3
     ec0:	bf 2e       	mov	r11, r31
     ec2:	f0 2d       	mov	r31, r0

00000ec4 <.Loc.235>:
        {
            if (++count >= 5)
            {
                break;
            }
            TIFR3 = (1 << TOV3);
     ec4:	dd 24       	eor	r13, r13
     ec6:	d3 94       	inc	r13

00000ec8 <.Loc.236>:
    while(temp == 0)
     ec8:	1b c0       	rjmp	.+54     	; 0xf00 <.L49>

00000eca <.L51>:
            TCNT3 = RESET_VALUE_TIMER3;
        }
    }
    motor_L(1);
     eca:	60 e0       	ldi	r22, 0x00	; 0
     ecc:	70 e0       	ldi	r23, 0x00	; 0
     ece:	80 e8       	ldi	r24, 0x80	; 128
     ed0:	9f e3       	ldi	r25, 0x3F	; 63
     ed2:	0e 94 41 04 	call	0x882	; 0x882 <motor_L>

00000ed6 <.LVL76>:
    motor_R(1);
     ed6:	60 e0       	ldi	r22, 0x00	; 0
     ed8:	70 e0       	ldi	r23, 0x00	; 0
     eda:	80 e8       	ldi	r24, 0x80	; 128
     edc:	9f e3       	ldi	r25, 0x3F	; 63
     ede:	0e 94 11 04 	call	0x822	; 0x822 <motor_R>

00000ee2 <.LVL77>:

    TCNT2 = 6;
     ee2:	c8 82       	st	Y, r12

00000ee4 <.Loc.241>:
     ee4:	8e e5       	ldi	r24, 0x5E	; 94
     ee6:	91 e0       	ldi	r25, 0x01	; 1

00000ee8 <.L53>:
    count = 0;
    while (1)
    {
        if (TIFR2 & (1 << TOV2))
     ee8:	b8 9b       	sbis	0x17, 0	; 23
     eea:	fe cf       	rjmp	.-4      	; 0xee8 <.L53>

00000eec <.Loc.246>:
        {
            if (++count >= 350)     ///WP COUNT -> 350
     eec:	01 97       	sbiw	r24, 0x01	; 1

00000eee <.Loc.248>:
     eee:	00 97       	sbiw	r24, 0x00	; 0
     ef0:	19 f0       	breq	.+6      	; 0xef8 <.L54>

00000ef2 <.Loc.249>:
            {
                break;
            }
            TIFR2 = (1 << TOV2);
     ef2:	d7 ba       	out	0x17, r13	; 23

00000ef4 <.Loc.251>:
            TCNT2 = 6;
     ef4:	c8 82       	st	Y, r12
     ef6:	f8 cf       	rjmp	.-16     	; 0xee8 <.L53>

00000ef8 <.L54>:
        }
    }
    teller++;
    //if (ultrasoonAfstand_L() < 20) {temp = 1;}
    if (ultrasoonAfstand_R() < 20) {temp = 1;}
     ef8:	0e 94 61 08 	call	0x10c2	; 0x10c2 <ultrasoonAfstand_R>

00000efc <.LVL83>:
     efc:	44 97       	sbiw	r24, 0x14	; 20
     efe:	20 f1       	brcs	.+72     	; 0xf48 <.L59>

00000f00 <.L49>:
    TCNT3 = RESET_VALUE_TIMER3;
     f00:	f8 01       	movw	r30, r16
     f02:	f1 82       	std	Z+1, r15	; 0x01
     f04:	e0 82       	st	Z, r14

00000f06 <.Loc.260>:
    TCCR3A = 0;
     f06:	f1 01       	movw	r30, r2
     f08:	10 82       	st	Z, r1

00000f0a <.Loc.262>:
    TCCR3B = (1 << CS32)|(0 << CS31)|(0 << CS30);
     f0a:	84 e0       	ldi	r24, 0x04	; 4
     f0c:	f2 01       	movw	r30, r4
     f0e:	80 83       	st	Z, r24

00000f10 <.Loc.264>:
    TCNT2 = 6;
     f10:	c8 82       	st	Y, r12

00000f12 <.Loc.266>:
    TCCR2A = 0;
     f12:	f3 01       	movw	r30, r6
     f14:	10 82       	st	Z, r1

00000f16 <.Loc.268>:
    TCCR2B = (0 << CS22)|(1 << CS21) | (1 << CS20);
     f16:	f4 01       	movw	r30, r8
     f18:	b0 82       	st	Z, r11

00000f1a <.Loc.270>:
    motor_L(1);
     f1a:	60 e0       	ldi	r22, 0x00	; 0
     f1c:	70 e0       	ldi	r23, 0x00	; 0
     f1e:	80 e8       	ldi	r24, 0x80	; 128
     f20:	9f e3       	ldi	r25, 0x3F	; 63
     f22:	0e 94 41 04 	call	0x882	; 0x882 <motor_L>

00000f26 <.LVL85>:
    motor_R(0);
     f26:	60 e0       	ldi	r22, 0x00	; 0
     f28:	70 e0       	ldi	r23, 0x00	; 0
     f2a:	cb 01       	movw	r24, r22
     f2c:	0e 94 11 04 	call	0x822	; 0x822 <motor_R>

00000f30 <.LVL86>:
     f30:	85 e0       	ldi	r24, 0x05	; 5
     f32:	90 e0       	ldi	r25, 0x00	; 0

00000f34 <.L50>:
        if (TIFR3 & (1 << TOV3))
     f34:	c0 9b       	sbis	0x18, 0	; 24
     f36:	fe cf       	rjmp	.-4      	; 0xf34 <.L50>

00000f38 <.Loc.277>:
            if (++count >= 5)
     f38:	01 97       	sbiw	r24, 0x01	; 1

00000f3a <.Loc.279>:
     f3a:	00 97       	sbiw	r24, 0x00	; 0
     f3c:	31 f2       	breq	.-116    	; 0xeca <.L51>

00000f3e <.Loc.280>:
            TIFR3 = (1 << TOV3);
     f3e:	d8 ba       	out	0x18, r13	; 24

00000f40 <.Loc.282>:
            TCNT3 = RESET_VALUE_TIMER3;
     f40:	f8 01       	movw	r30, r16
     f42:	f1 82       	std	Z+1, r15	; 0x01
     f44:	e0 82       	st	Z, r14
     f46:	f6 cf       	rjmp	.-20     	; 0xf34 <.L50>

00000f48 <.L59>:
    }
}
     f48:	df 91       	pop	r29
     f4a:	cf 91       	pop	r28
     f4c:	1f 91       	pop	r17
     f4e:	0f 91       	pop	r16
     f50:	ff 90       	pop	r15
     f52:	ef 90       	pop	r14
     f54:	df 90       	pop	r13
     f56:	cf 90       	pop	r12
     f58:	bf 90       	pop	r11
     f5a:	9f 90       	pop	r9
     f5c:	8f 90       	pop	r8
     f5e:	7f 90       	pop	r7
     f60:	6f 90       	pop	r6
     f62:	5f 90       	pop	r5
     f64:	4f 90       	pop	r4
     f66:	3f 90       	pop	r3
     f68:	2f 90       	pop	r2
     f6a:	08 95       	ret

00000f6c <programma_keuze>:
#include "motor_lib.h"
#include "programma_keuze.h"
#include <util/delay.h>

int programma_keuze(void)
{
     f6c:	cf 92       	push	r12
     f6e:	df 92       	push	r13
     f70:	ef 92       	push	r14
     f72:	ff 92       	push	r15
     f74:	0f 93       	push	r16
     f76:	1f 93       	push	r17
     f78:	cf 93       	push	r28
     f7a:	df 93       	push	r29

00000f7c <.Loc.1>:
    init_function();
     f7c:	0e 94 43 01 	call	0x286	; 0x286 <init_function>

00000f80 <.LVL0>:
    enum programma {startUp, rechtdoor, keren_L, keren_R, pakketTellen, parkour};
    enum programma programma = startUp;
    int pressed = FALSE;
     f80:	20 e0       	ldi	r18, 0x00	; 0
     f82:	30 e0       	ldi	r19, 0x00	; 0

00000f84 <.Loc.9>:
    enum programma programma = startUp;
     f84:	80 e0       	ldi	r24, 0x00	; 0
     f86:	90 e0       	ldi	r25, 0x00	; 0

00000f88 <.Loc.10>:
    while (keuzeGemaakt == FALSE)
    {
        if (!(KNOP_1_PIN & (1 << KNOP_1)) && pressed == FALSE)                              /// knop 1 --> RECHTDOOR
        {
            programma = rechtdoor;
            pressed = TRUE;
     f88:	71 e0       	ldi	r23, 0x01	; 1
     f8a:	60 e0       	ldi	r22, 0x00	; 0

00000f8c <.Loc.11>:
            _delay_ms(5); //debounce
        }
        if (!(KNOP_2_PIN & (1 << KNOP_2)) && pressed == FALSE)                              /// knop 2 --> KEREN L
        {
            programma = keren_L;
     f8c:	02 e0       	ldi	r16, 0x02	; 2
     f8e:	10 e0       	ldi	r17, 0x00	; 0

00000f90 <.Loc.12>:
            pressed = TRUE;
            _delay_ms(5); //debounce
        }
        if (!(KNOP_3_PIN & (1 << KNOP_3)) && pressed == FALSE)                              /// knop 3 --> KEREN R
        {
            programma = keren_R;
     f90:	d3 e0       	ldi	r29, 0x03	; 3
     f92:	c0 e0       	ldi	r28, 0x00	; 0

00000f94 <.Loc.13>:
            pressed = TRUE;
            _delay_ms(5); //debounce
        }
        if (!(KNOP_4_PIN & (1 << KNOP_4)) && pressed == FALSE)                              /// knop 4 --> PAKKET TELLEN
        {
            programma = pakketTellen;
     f94:	68 94       	set
     f96:	dd 24       	eor	r13, r13
     f98:	d2 f8       	bld	r13, 2
     f9a:	c1 2c       	mov	r12, r1

00000f9c <.Loc.14>:
            keuzeGemaakt = TRUE;
            _delay_ms(5); //debounce
        }
        if (((KNOP_1_PIN & (1 << KNOP_1))||(KNOP_2_PIN & (1 << KNOP_2))||(KNOP_3_PIN & (1 << KNOP_3))||(KNOP_4_PIN & (1 << KNOP_4))||(KNOP_5_PIN & (1 << KNOP_5))) && (pressed == TRUE))
        {
            pressed = FALSE;
     f9c:	f0 e0       	ldi	r31, 0x00	; 0
     f9e:	e0 e0       	ldi	r30, 0x00	; 0

00000fa0 <.Loc.15>:
            programma= parkour;
     fa0:	0f 2e       	mov	r0, r31
     fa2:	f5 e0       	ldi	r31, 0x05	; 5
     fa4:	ef 2e       	mov	r14, r31
     fa6:	f0 2d       	mov	r31, r0
     fa8:	f1 2c       	mov	r15, r1
     faa:	1f c0       	rjmp	.+62     	; 0xfea <.L12>

00000fac <.L6>:
        if (!(KNOP_6_PIN & (1 << KNOP_6)) && !(programma == startUp))                       /// knop 6 --> START PROGRAMMA
     fac:	4f 2f       	mov	r20, r31
     fae:	5e 2f       	mov	r21, r30

00000fb0 <.Loc.17>:
     fb0:	05 99       	sbic	0x00, 5	; 0
     fb2:	0a c0       	rjmp	.+20     	; 0xfc8 <.L9>

00000fb4 <.Loc.18>:
     fb4:	00 97       	sbiw	r24, 0x00	; 0
     fb6:	41 f0       	breq	.+16     	; 0xfc8 <.L9>

00000fb8 <.L7>:
	__builtin_avr_delay_cycles(__ticks_dc);
     fb8:	af e1       	ldi	r26, 0x1F	; 31
     fba:	be e4       	ldi	r27, 0x4E	; 78

00000fbc <.L1^B1>:
     fbc:	11 97       	sbiw	r26, 0x01	; 1
     fbe:	f1 f7       	brne	.-4      	; 0xfbc <.L1^B1>
     fc0:	00 c0       	rjmp	.+0      	; 0xfc2 <L0^A>

00000fc2 <L0^A>:
	...

00000fc4 <.LBE16>:
            keuzeGemaakt = TRUE;
     fc4:	47 2f       	mov	r20, r23
     fc6:	56 2f       	mov	r21, r22

00000fc8 <.L9>:
        if (((KNOP_1_PIN & (1 << KNOP_1))||(KNOP_2_PIN & (1 << KNOP_2))||(KNOP_3_PIN & (1 << KNOP_3))||(KNOP_4_PIN & (1 << KNOP_4))||(KNOP_5_PIN & (1 << KNOP_5))) && (pressed == TRUE))
     fc8:	00 99       	sbic	0x00, 0	; 0
     fca:	08 c0       	rjmp	.+16     	; 0xfdc <.L10>

00000fcc <.L14>:
     fcc:	01 99       	sbic	0x00, 1	; 0
     fce:	06 c0       	rjmp	.+12     	; 0xfdc <.L10>

00000fd0 <.Loc.32>:
     fd0:	02 99       	sbic	0x00, 2	; 0
     fd2:	04 c0       	rjmp	.+8      	; 0xfdc <.L10>

00000fd4 <.Loc.33>:
     fd4:	03 99       	sbic	0x00, 3	; 0
     fd6:	02 c0       	rjmp	.+4      	; 0xfdc <.L10>

00000fd8 <.Loc.34>:
     fd8:	04 9b       	sbis	0x00, 4	; 0
     fda:	04 c0       	rjmp	.+8      	; 0xfe4 <.L11>

00000fdc <.L10>:
     fdc:	21 30       	cpi	r18, 0x01	; 1
     fde:	31 05       	cpc	r19, r1
     fe0:	09 f4       	brne	.+2      	; 0xfe4 <.L11>

00000fe2 <L0^A>:
     fe2:	5d c0       	rjmp	.+186    	; 0x109e <.L13>

00000fe4 <.L11>:
    while (keuzeGemaakt == FALSE)
     fe4:	45 2b       	or	r20, r21
     fe6:	09 f0       	breq	.+2      	; 0xfea <.L12>

00000fe8 <L0^A>:
     fe8:	63 c0       	rjmp	.+198    	; 0x10b0 <.L22>

00000fea <.L12>:
        if (!(KNOP_1_PIN & (1 << KNOP_1)) && pressed == FALSE)                              /// knop 1 --> RECHTDOOR
     fea:	00 99       	sbic	0x00, 0	; 0
     fec:	0d c0       	rjmp	.+26     	; 0x1008 <.L2>

00000fee <.Loc.39>:
     fee:	21 15       	cp	r18, r1
     ff0:	31 05       	cpc	r19, r1
     ff2:	51 f4       	brne	.+20     	; 0x1008 <.L2>

00000ff4 <.LBB18>:
     ff4:	8f e1       	ldi	r24, 0x1F	; 31
     ff6:	9e e4       	ldi	r25, 0x4E	; 78

00000ff8 <.L1^B2>:
     ff8:	01 97       	sbiw	r24, 0x01	; 1
     ffa:	f1 f7       	brne	.-4      	; 0xff8 <.L1^B2>
     ffc:	00 c0       	rjmp	.+0      	; 0xffe <L0^A>

00000ffe <L0^A>:
	...

00001000 <.LBE18>:
            pressed = TRUE;
    1000:	27 2f       	mov	r18, r23
    1002:	36 2f       	mov	r19, r22

00001004 <.Loc.51>:
            programma = rechtdoor;
    1004:	87 2f       	mov	r24, r23
    1006:	96 2f       	mov	r25, r22

00001008 <.L2>:
        if (!(KNOP_2_PIN & (1 << KNOP_2)) && pressed == FALSE)                              /// knop 2 --> KEREN L
    1008:	01 99       	sbic	0x00, 1	; 0
    100a:	0d c0       	rjmp	.+26     	; 0x1026 <.L3>

0000100c <.Loc.54>:
    100c:	21 15       	cp	r18, r1
    100e:	31 05       	cpc	r19, r1
    1010:	51 f4       	brne	.+20     	; 0x1026 <.L3>

00001012 <.LBB20>:
    1012:	af e1       	ldi	r26, 0x1F	; 31
    1014:	be e4       	ldi	r27, 0x4E	; 78

00001016 <.L1^B3>:
    1016:	11 97       	sbiw	r26, 0x01	; 1
    1018:	f1 f7       	brne	.-4      	; 0x1016 <.L1^B3>
    101a:	00 c0       	rjmp	.+0      	; 0x101c <L0^A>

0000101c <L0^A>:
	...

0000101e <.LBE20>:
            pressed = TRUE;
    101e:	27 2f       	mov	r18, r23
    1020:	36 2f       	mov	r19, r22

00001022 <.Loc.66>:
            programma = keren_L;
    1022:	80 2f       	mov	r24, r16
    1024:	91 2f       	mov	r25, r17

00001026 <.L3>:
        if (!(KNOP_3_PIN & (1 << KNOP_3)) && pressed == FALSE)                              /// knop 3 --> KEREN R
    1026:	02 99       	sbic	0x00, 2	; 0
    1028:	0d c0       	rjmp	.+26     	; 0x1044 <.L4>

0000102a <.Loc.69>:
    102a:	21 15       	cp	r18, r1
    102c:	31 05       	cpc	r19, r1
    102e:	51 f4       	brne	.+20     	; 0x1044 <.L4>

00001030 <.LBB22>:
    1030:	8f e1       	ldi	r24, 0x1F	; 31
    1032:	9e e4       	ldi	r25, 0x4E	; 78

00001034 <.L1^B4>:
    1034:	01 97       	sbiw	r24, 0x01	; 1
    1036:	f1 f7       	brne	.-4      	; 0x1034 <.L1^B4>
    1038:	00 c0       	rjmp	.+0      	; 0x103a <L0^A>

0000103a <L0^A>:
	...

0000103c <.LBE22>:
            pressed = TRUE;
    103c:	27 2f       	mov	r18, r23
    103e:	36 2f       	mov	r19, r22

00001040 <.Loc.81>:
            programma = keren_R;
    1040:	8d 2f       	mov	r24, r29
    1042:	9c 2f       	mov	r25, r28

00001044 <.L4>:
        if (!(KNOP_4_PIN & (1 << KNOP_4)) && pressed == FALSE)                              /// knop 4 --> PAKKET TELLEN
    1044:	03 99       	sbic	0x00, 3	; 0
    1046:	0d c0       	rjmp	.+26     	; 0x1062 <.L5>

00001048 <.Loc.84>:
    1048:	21 15       	cp	r18, r1
    104a:	31 05       	cpc	r19, r1
    104c:	51 f4       	brne	.+20     	; 0x1062 <.L5>

0000104e <.LBB24>:
    104e:	af e1       	ldi	r26, 0x1F	; 31
    1050:	be e4       	ldi	r27, 0x4E	; 78

00001052 <.L1^B5>:
    1052:	11 97       	sbiw	r26, 0x01	; 1
    1054:	f1 f7       	brne	.-4      	; 0x1052 <.L1^B5>
    1056:	00 c0       	rjmp	.+0      	; 0x1058 <L0^A>

00001058 <L0^A>:
	...

0000105a <.LBE24>:
            pressed = TRUE;
    105a:	27 2f       	mov	r18, r23
    105c:	36 2f       	mov	r19, r22

0000105e <.Loc.96>:
            programma = pakketTellen;
    105e:	8d 2d       	mov	r24, r13
    1060:	9c 2d       	mov	r25, r12

00001062 <.L5>:
        if (!(KNOP_5_PIN & (1 << KNOP_5)) && pressed == FALSE)                              /// knop 5 --> PARCOURSE
    1062:	04 99       	sbic	0x00, 4	; 0
    1064:	a3 cf       	rjmp	.-186    	; 0xfac <.L6>

00001066 <.Loc.99>:
    1066:	21 15       	cp	r18, r1
    1068:	31 05       	cpc	r19, r1
    106a:	09 f0       	breq	.+2      	; 0x106e <.LBB26>

0000106c <L0^A>:
    106c:	9f cf       	rjmp	.-194    	; 0xfac <.L6>

0000106e <.LBB26>:
    106e:	8f e1       	ldi	r24, 0x1F	; 31
    1070:	9e e4       	ldi	r25, 0x4E	; 78

00001072 <.L1^B6>:
    1072:	01 97       	sbiw	r24, 0x01	; 1
    1074:	f1 f7       	brne	.-4      	; 0x1072 <.L1^B6>
    1076:	00 c0       	rjmp	.+0      	; 0x1078 <L0^A>

00001078 <L0^A>:
	...

0000107a <.LBE26>:
        if (!(KNOP_6_PIN & (1 << KNOP_6)) && !(programma == startUp))                       /// knop 6 --> START PROGRAMMA
    107a:	05 9b       	sbis	0x00, 5	; 0
    107c:	08 c0       	rjmp	.+16     	; 0x108e <.L15>

0000107e <.Loc.113>:
        if (((KNOP_1_PIN & (1 << KNOP_1))||(KNOP_2_PIN & (1 << KNOP_2))||(KNOP_3_PIN & (1 << KNOP_3))||(KNOP_4_PIN & (1 << KNOP_4))||(KNOP_5_PIN & (1 << KNOP_5))) && (pressed == TRUE))
    107e:	00 99       	sbic	0x00, 0	; 0
    1080:	0b c0       	rjmp	.+22     	; 0x1098 <.L18>
    1082:	a9 01       	movw	r20, r18

00001084 <.Loc.115>:
            pressed = TRUE;
    1084:	21 e0       	ldi	r18, 0x01	; 1
    1086:	30 e0       	ldi	r19, 0x00	; 0

00001088 <.Loc.116>:
            programma= parkour;
    1088:	85 e0       	ldi	r24, 0x05	; 5
    108a:	90 e0       	ldi	r25, 0x00	; 0
    108c:	9f cf       	rjmp	.-194    	; 0xfcc <.L14>

0000108e <.L15>:
            pressed = TRUE;
    108e:	27 2f       	mov	r18, r23
    1090:	36 2f       	mov	r19, r22

00001092 <.Loc.118>:
            programma= parkour;
    1092:	8e 2d       	mov	r24, r14
    1094:	9f 2d       	mov	r25, r15
    1096:	90 cf       	rjmp	.-224    	; 0xfb8 <.L7>

00001098 <.L18>:
        if (((KNOP_1_PIN & (1 << KNOP_1))||(KNOP_2_PIN & (1 << KNOP_2))||(KNOP_3_PIN & (1 << KNOP_3))||(KNOP_4_PIN & (1 << KNOP_4))||(KNOP_5_PIN & (1 << KNOP_5))) && (pressed == TRUE))
    1098:	a9 01       	movw	r20, r18

0000109a <.Loc.120>:
            programma= parkour;
    109a:	85 e0       	ldi	r24, 0x05	; 5
    109c:	90 e0       	ldi	r25, 0x00	; 0

0000109e <.L13>:
    109e:	af e1       	ldi	r26, 0x1F	; 31
    10a0:	be e4       	ldi	r27, 0x4E	; 78

000010a2 <.L1^B7>:
    10a2:	11 97       	sbiw	r26, 0x01	; 1
    10a4:	f1 f7       	brne	.-4      	; 0x10a2 <.L1^B7>
    10a6:	00 c0       	rjmp	.+0      	; 0x10a8 <L0^A>

000010a8 <L0^A>:
	...

000010aa <.Loc.130>:
            pressed = FALSE;
    10aa:	2f 2f       	mov	r18, r31
    10ac:	3e 2f       	mov	r19, r30

000010ae <.Loc.131>:
}
    10ae:	9a cf       	rjmp	.-204    	; 0xfe4 <.L11>

000010b0 <.L22>:
            _delay_ms(5); //debounce
        }
    }
    return programma;
}
    10b0:	df 91       	pop	r29
    10b2:	cf 91       	pop	r28
    10b4:	1f 91       	pop	r17
    10b6:	0f 91       	pop	r16
    10b8:	ff 90       	pop	r15
    10ba:	ef 90       	pop	r14
    10bc:	df 90       	pop	r13
    10be:	cf 90       	pop	r12
    10c0:	08 95       	ret

000010c2 <ultrasoonAfstand_R>:
#include "navigatie_lib.h"
#include "motor_lib.h"
#include "programma_keuze.h"

uint16_t ultrasoonAfstand_R(void)
{
    10c2:	cf 93       	push	r28
    10c4:	df 93       	push	r29
    10c6:	00 d0       	rcall	.+0      	; 0x10c8 <L0^A>

000010c8 <L0^A>:
    10c8:	0f 92       	push	r0
    10ca:	cd b7       	in	r28, 0x3d	; 61
    10cc:	de b7       	in	r29, 0x3e	; 62

000010ce <.Loc.1>:
    // 1. Trigger
    ULTRASOON_TRIGGER_R_PORT &= ~(1 << ULTRASOON_TRIGGER_R);
    10ce:	46 98       	cbi	0x08, 6	; 8

000010d0 <.Loc.3>:
    ULTRASOON_TRIGGER_R_PORT |= (1 << ULTRASOON_TRIGGER_R); _delay_us(10);
    10d0:	46 9a       	sbi	0x08, 6	; 8

000010d2 <.LBB6>:
	__builtin_avr_delay_cycles(__ticks_dc);
    10d2:	25 e3       	ldi	r18, 0x35	; 53

000010d4 <.L1^B1>:
    10d4:	2a 95       	dec	r18
    10d6:	f1 f7       	brne	.-4      	; 0x10d4 <.L1^B1>
	...

000010da <.LBE6>:
    ULTRASOON_TRIGGER_R_PORT &= ~(1 << ULTRASOON_TRIGGER_R);
    10da:	46 98       	cbi	0x08, 6	; 8

000010dc <.Loc.16>:

    // 2. Wacht op echo
    uint32_t timeout = TIMEOUT;
    10dc:	80 e1       	ldi	r24, 0x10	; 16
    10de:	97 e2       	ldi	r25, 0x27	; 39
    10e0:	a0 e0       	ldi	r26, 0x00	; 0
    10e2:	b0 e0       	ldi	r27, 0x00	; 0

000010e4 <.L3>:
    while (!(ULTRASOON_ECHO_R_PIN & (1 << ULTRASOON_ECHO_R)) && timeout--);
    10e4:	37 99       	sbic	0x06, 7	; 6
    10e6:	05 c0       	rjmp	.+10     	; 0x10f2 <.L2>

000010e8 <.Loc.20>:
    10e8:	01 97       	sbiw	r24, 0x01	; 1
    10ea:	a1 09       	sbc	r26, r1
    10ec:	b1 09       	sbc	r27, r1
    10ee:	d0 f7       	brcc	.-12     	; 0x10e4 <.L3>

000010f0 <.Loc.21>:
    10f0:	05 c0       	rjmp	.+10     	; 0x10fc <.L4>

000010f2 <.L2>:
    if (timeout == 0) return 999;
    10f2:	89 2b       	or	r24, r25
    10f4:	8a 2b       	or	r24, r26
    10f6:	8b 2b       	or	r24, r27
    10f8:	09 f4       	brne	.+2      	; 0x10fc <.L4>

000010fa <L0^A>:
    10fa:	42 c0       	rjmp	.+132    	; 0x1180 <.L8>

000010fc <.L4>:

    // 3. Timer starten (prescaler 8)
    TCNT1 = 0;
    10fc:	10 92 85 00 	sts	0x0085, r1	; 0x800085 <__TEXT_REGION_LENGTH__+0x700085>
    1100:	10 92 84 00 	sts	0x0084, r1	; 0x800084 <__TEXT_REGION_LENGTH__+0x700084>

00001104 <.Loc.26>:
    TCCR1B = (1 << CS11);
    1104:	82 e0       	ldi	r24, 0x02	; 2
    1106:	80 93 81 00 	sts	0x0081, r24	; 0x800081 <__TEXT_REGION_LENGTH__+0x700081>

0000110a <.Loc.28>:

    // 4. Wachten op einde echo
    while (ULTRASOON_ECHO_R_PIN & (1 << ULTRASOON_ECHO_R) && TCNT1 < OVERFLOW);
    110a:	e4 e8       	ldi	r30, 0x84	; 132
    110c:	f0 e0       	ldi	r31, 0x00	; 0

0000110e <.L7>:
    110e:	37 9b       	sbis	0x06, 7	; 6
    1110:	05 c0       	rjmp	.+10     	; 0x111c <.L6>

00001112 <.Loc.31>:
    1112:	80 81       	ld	r24, Z
    1114:	91 81       	ldd	r25, Z+1	; 0x01

00001116 <.Loc.32>:
    1116:	80 34       	cpi	r24, 0x40	; 64
    1118:	9c 49       	sbci	r25, 0x9C	; 156
    111a:	c8 f3       	brcs	.-14     	; 0x110e <.L7>

0000111c <.L6>:
    TCCR1B = 0;
    111c:	10 92 81 00 	sts	0x0081, r1	; 0x800081 <__TEXT_REGION_LENGTH__+0x700081>

00001120 <.Loc.35>:

    // 5. Bereken afstand
    uint16_t distance = TCNT1 * TICKFACTOR;
    1120:	80 91 84 00 	lds	r24, 0x0084	; 0x800084 <__TEXT_REGION_LENGTH__+0x700084>
    1124:	90 91 85 00 	lds	r25, 0x0085	; 0x800085 <__TEXT_REGION_LENGTH__+0x700085>

00001128 <.Loc.37>:
    1128:	9c 01       	movw	r18, r24
    112a:	40 e0       	ldi	r20, 0x00	; 0
    112c:	50 e0       	ldi	r21, 0x00	; 0
    112e:	29 83       	std	Y+1, r18	; 0x01
    1130:	3a 83       	std	Y+2, r19	; 0x02
    1132:	4b 83       	std	Y+3, r20	; 0x03
    1134:	5c 83       	std	Y+4, r21	; 0x04
    1136:	ca 01       	movw	r24, r20
    1138:	b9 01       	movw	r22, r18
    113a:	0e 94 71 0a 	call	0x14e2	; 0x14e2 <__floatunsisf>

0000113e <.LVL6>:
    113e:	28 e2       	ldi	r18, 0x28	; 40
    1140:	3e e7       	ldi	r19, 0x7E	; 126
    1142:	4c e0       	ldi	r20, 0x0C	; 12
    1144:	5c e3       	ldi	r21, 0x3C	; 60
    1146:	69 83       	std	Y+1, r22	; 0x01
    1148:	7a 83       	std	Y+2, r23	; 0x02
    114a:	8b 83       	std	Y+3, r24	; 0x03
    114c:	9c 83       	std	Y+4, r25	; 0x04
    114e:	69 81       	ldd	r22, Y+1	; 0x01
    1150:	7a 81       	ldd	r23, Y+2	; 0x02
    1152:	8b 81       	ldd	r24, Y+3	; 0x03
    1154:	9c 81       	ldd	r25, Y+4	; 0x04
    1156:	0e 94 ff 0a 	call	0x15fe	; 0x15fe <__mulsf3>

0000115a <.LVL7>:
    115a:	69 83       	std	Y+1, r22	; 0x01
    115c:	7a 83       	std	Y+2, r23	; 0x02
    115e:	8b 83       	std	Y+3, r24	; 0x03
    1160:	9c 83       	std	Y+4, r25	; 0x04
    1162:	69 81       	ldd	r22, Y+1	; 0x01
    1164:	7a 81       	ldd	r23, Y+2	; 0x02
    1166:	8b 81       	ldd	r24, Y+3	; 0x03
    1168:	9c 81       	ldd	r25, Y+4	; 0x04
    116a:	0e 94 42 0a 	call	0x1484	; 0x1484 <__fixunssfsi>

0000116e <.LVL8>:
    116e:	86 2f       	mov	r24, r22
    1170:	97 2f       	mov	r25, r23

00001172 <.L1>:

    // 6. Return waarde
    return distance;
}
    1172:	0f 90       	pop	r0
    1174:	0f 90       	pop	r0
    1176:	0f 90       	pop	r0
    1178:	0f 90       	pop	r0
    117a:	df 91       	pop	r29
    117c:	cf 91       	pop	r28
    117e:	08 95       	ret

00001180 <.L8>:
    if (timeout == 0) return 999;
    1180:	87 ee       	ldi	r24, 0xE7	; 231
    1182:	93 e0       	ldi	r25, 0x03	; 3

00001184 <.Loc.42>:
    1184:	f6 cf       	rjmp	.-20     	; 0x1172 <.L1>

00001186 <ultrasoonAfstand_L>:

uint16_t ultrasoonAfstand_L(void)
{
    1186:	cf 93       	push	r28
    1188:	df 93       	push	r29
    118a:	00 d0       	rcall	.+0      	; 0x118c <L0^A>

0000118c <L0^A>:
    118c:	0f 92       	push	r0
    118e:	cd b7       	in	r28, 0x3d	; 61
    1190:	de b7       	in	r29, 0x3e	; 62

00001192 <.Loc.44>:
    // 1. Trigger
    ULTRASOON_TRIGGER_L_PORT &= ~(1 << ULTRASOON_TRIGGER_L); //_delay_us(2);
    1192:	17 98       	cbi	0x02, 7	; 2

00001194 <.Loc.46>:
    ULTRASOON_TRIGGER_L_PORT |= (1 << ULTRASOON_TRIGGER_L); _delay_us(10);
    1194:	17 9a       	sbi	0x02, 7	; 2

00001196 <.LBB8>:
    1196:	25 e3       	ldi	r18, 0x35	; 53

00001198 <.L1^B2>:
    1198:	2a 95       	dec	r18
    119a:	f1 f7       	brne	.-4      	; 0x1198 <.L1^B2>
	...

0000119e <.LBE8>:
    ULTRASOON_TRIGGER_L_PORT &= ~(1 << ULTRASOON_TRIGGER_L);
    119e:	17 98       	cbi	0x02, 7	; 2

000011a0 <.Loc.59>:

    // 2. Wacht op start echo
    uint32_t timeout = TIMEOUT;
    11a0:	80 e1       	ldi	r24, 0x10	; 16
    11a2:	97 e2       	ldi	r25, 0x27	; 39
    11a4:	a0 e0       	ldi	r26, 0x00	; 0
    11a6:	b0 e0       	ldi	r27, 0x00	; 0

000011a8 <.L13>:
    while(!(ULTRASOON_ECHO_L_PIN & (1 << ULTRASOON_ECHO_L)) && timeout--);
    11a8:	06 99       	sbic	0x00, 6	; 0
    11aa:	05 c0       	rjmp	.+10     	; 0x11b6 <.L12>

000011ac <.Loc.63>:
    11ac:	01 97       	sbiw	r24, 0x01	; 1
    11ae:	a1 09       	sbc	r26, r1
    11b0:	b1 09       	sbc	r27, r1
    11b2:	d0 f7       	brcc	.-12     	; 0x11a8 <.L13>

000011b4 <.Loc.64>:
    11b4:	05 c0       	rjmp	.+10     	; 0x11c0 <.L14>

000011b6 <.L12>:
    if(timeout == 0) return 999; // Foutmelding
    11b6:	89 2b       	or	r24, r25
    11b8:	8a 2b       	or	r24, r26
    11ba:	8b 2b       	or	r24, r27
    11bc:	09 f4       	brne	.+2      	; 0x11c0 <.L14>

000011be <L0^A>:
    11be:	42 c0       	rjmp	.+132    	; 0x1244 <.L18>

000011c0 <.L14>:

    // 3. Start timer (Prescaler 8 -> 1 tick = 0.5us)
    TCNT1 = 0;
    11c0:	10 92 85 00 	sts	0x0085, r1	; 0x800085 <__TEXT_REGION_LENGTH__+0x700085>
    11c4:	10 92 84 00 	sts	0x0084, r1	; 0x800084 <__TEXT_REGION_LENGTH__+0x700084>

000011c8 <.Loc.69>:
    TCCR1B = (1 << CS11);
    11c8:	82 e0       	ldi	r24, 0x02	; 2
    11ca:	80 93 81 00 	sts	0x0081, r24	; 0x800081 <__TEXT_REGION_LENGTH__+0x700081>

000011ce <.Loc.71>:

    // 4. Wacht op einde echo
    while((ULTRASOON_ECHO_L_PIN & (1 << ULTRASOON_ECHO_L)) && TCNT1 < OVERFLOW);
    11ce:	e4 e8       	ldi	r30, 0x84	; 132
    11d0:	f0 e0       	ldi	r31, 0x00	; 0

000011d2 <.L17>:
    11d2:	06 9b       	sbis	0x00, 6	; 0
    11d4:	05 c0       	rjmp	.+10     	; 0x11e0 <.L16>

000011d6 <.Loc.74>:
    11d6:	80 81       	ld	r24, Z
    11d8:	91 81       	ldd	r25, Z+1	; 0x01

000011da <.Loc.75>:
    11da:	80 34       	cpi	r24, 0x40	; 64
    11dc:	9c 49       	sbci	r25, 0x9C	; 156
    11de:	c8 f3       	brcs	.-14     	; 0x11d2 <.L17>

000011e0 <.L16>:
    TCCR1B = 0; // Stop timer
    11e0:	10 92 81 00 	sts	0x0081, r1	; 0x800081 <__TEXT_REGION_LENGTH__+0x700081>

000011e4 <.Loc.78>:

    // 5. Bereken: ticks * 0.5us * 0.0343 / 2
    uint16_t distanceL = TCNT1 * TICKFACTOR;
    11e4:	80 91 84 00 	lds	r24, 0x0084	; 0x800084 <__TEXT_REGION_LENGTH__+0x700084>
    11e8:	90 91 85 00 	lds	r25, 0x0085	; 0x800085 <__TEXT_REGION_LENGTH__+0x700085>

000011ec <.Loc.80>:
    11ec:	9c 01       	movw	r18, r24
    11ee:	40 e0       	ldi	r20, 0x00	; 0
    11f0:	50 e0       	ldi	r21, 0x00	; 0
    11f2:	29 83       	std	Y+1, r18	; 0x01
    11f4:	3a 83       	std	Y+2, r19	; 0x02
    11f6:	4b 83       	std	Y+3, r20	; 0x03
    11f8:	5c 83       	std	Y+4, r21	; 0x04
    11fa:	ca 01       	movw	r24, r20
    11fc:	b9 01       	movw	r22, r18
    11fe:	0e 94 71 0a 	call	0x14e2	; 0x14e2 <__floatunsisf>

00001202 <.LVL18>:
    1202:	28 e2       	ldi	r18, 0x28	; 40
    1204:	3e e7       	ldi	r19, 0x7E	; 126
    1206:	4c e0       	ldi	r20, 0x0C	; 12
    1208:	5c e3       	ldi	r21, 0x3C	; 60
    120a:	69 83       	std	Y+1, r22	; 0x01
    120c:	7a 83       	std	Y+2, r23	; 0x02
    120e:	8b 83       	std	Y+3, r24	; 0x03
    1210:	9c 83       	std	Y+4, r25	; 0x04
    1212:	69 81       	ldd	r22, Y+1	; 0x01
    1214:	7a 81       	ldd	r23, Y+2	; 0x02
    1216:	8b 81       	ldd	r24, Y+3	; 0x03
    1218:	9c 81       	ldd	r25, Y+4	; 0x04
    121a:	0e 94 ff 0a 	call	0x15fe	; 0x15fe <__mulsf3>

0000121e <.LVL19>:
    121e:	69 83       	std	Y+1, r22	; 0x01
    1220:	7a 83       	std	Y+2, r23	; 0x02
    1222:	8b 83       	std	Y+3, r24	; 0x03
    1224:	9c 83       	std	Y+4, r25	; 0x04
    1226:	69 81       	ldd	r22, Y+1	; 0x01
    1228:	7a 81       	ldd	r23, Y+2	; 0x02
    122a:	8b 81       	ldd	r24, Y+3	; 0x03
    122c:	9c 81       	ldd	r25, Y+4	; 0x04
    122e:	0e 94 42 0a 	call	0x1484	; 0x1484 <__fixunssfsi>

00001232 <.LVL20>:
    1232:	86 2f       	mov	r24, r22
    1234:	97 2f       	mov	r25, r23

00001236 <.L11>:

    // 6. Return waarde
    return distanceL;
}
    1236:	0f 90       	pop	r0
    1238:	0f 90       	pop	r0
    123a:	0f 90       	pop	r0
    123c:	0f 90       	pop	r0
    123e:	df 91       	pop	r29
    1240:	cf 91       	pop	r28
    1242:	08 95       	ret

00001244 <.L18>:
    if(timeout == 0) return 999; // Foutmelding
    1244:	87 ee       	ldi	r24, 0xE7	; 231
    1246:	93 e0       	ldi	r25, 0x03	; 3

00001248 <.Loc.85>:
    1248:	f6 cf       	rjmp	.-20     	; 0x1236 <.L11>

0000124a <__divmodhi4>:
    124a:	97 fb       	bst	r25, 7

0000124c <.Loc.1>:
    124c:	07 2e       	mov	r0, r23

0000124e <.Loc.2>:
    124e:	16 f4       	brtc	.+4      	; 0x1254 <.L^B1>

00001250 <.Loc.3>:
    1250:	00 94       	com	r0

00001252 <.Loc.4>:
    1252:	07 d0       	rcall	.+14     	; 0x1262 <__divmodhi4_neg1>

00001254 <.L^B1>:
    1254:	77 fd       	sbrc	r23, 7

00001256 <.Loc.6>:
    1256:	09 d0       	rcall	.+18     	; 0x126a <__divmodhi4_neg2>

00001258 <.Loc.7>:
    1258:	0e 94 48 09 	call	0x1290	; 0x1290 <__udivmodhi4>

0000125c <.Loc.8>:
    125c:	07 fc       	sbrc	r0, 7

0000125e <.Loc.9>:
    125e:	05 d0       	rcall	.+10     	; 0x126a <__divmodhi4_neg2>

00001260 <.Loc.10>:
    1260:	3e f4       	brtc	.+14     	; 0x1270 <__divmodhi4_exit>

00001262 <__divmodhi4_neg1>:
    1262:	90 95       	com	r25

00001264 <.Loc.12>:
    1264:	81 95       	neg	r24

00001266 <.Loc.13>:
    1266:	9f 4f       	sbci	r25, 0xFF	; 255

00001268 <.Loc.14>:
    1268:	08 95       	ret

0000126a <__divmodhi4_neg2>:
    126a:	70 95       	com	r23

0000126c <.Loc.16>:
    126c:	61 95       	neg	r22

0000126e <.Loc.17>:
    126e:	7f 4f       	sbci	r23, 0xFF	; 255

00001270 <__divmodhi4_exit>:
    1270:	08 95       	ret

00001272 <__umulhisi3>:
    1272:	a2 9f       	mul	r26, r18

00001274 <.Loc.1>:
    1274:	b0 01       	movw	r22, r0

00001276 <.Loc.2>:
    1276:	b3 9f       	mul	r27, r19

00001278 <.Loc.3>:
    1278:	c0 01       	movw	r24, r0

0000127a <.Loc.4>:
    127a:	a3 9f       	mul	r26, r19

0000127c <.Loc.5>:
    127c:	70 0d       	add	r23, r0

0000127e <.Loc.6>:
    127e:	81 1d       	adc	r24, r1

00001280 <.Loc.7>:
    1280:	11 24       	eor	r1, r1

00001282 <.Loc.8>:
    1282:	91 1d       	adc	r25, r1

00001284 <.Loc.9>:
    1284:	b2 9f       	mul	r27, r18

00001286 <.Loc.10>:
    1286:	70 0d       	add	r23, r0

00001288 <.Loc.11>:
    1288:	81 1d       	adc	r24, r1

0000128a <.Loc.12>:
    128a:	11 24       	eor	r1, r1

0000128c <.Loc.13>:
    128c:	91 1d       	adc	r25, r1

0000128e <.Loc.14>:
    128e:	08 95       	ret

00001290 <__udivmodhi4>:
    1290:	aa 1b       	sub	r26, r26

00001292 <.Loc.1>:
    1292:	bb 1b       	sub	r27, r27

00001294 <.Loc.2>:
    1294:	51 e1       	ldi	r21, 0x11	; 17

00001296 <.Loc.3>:
    1296:	07 c0       	rjmp	.+14     	; 0x12a6 <__udivmodhi4_ep>

00001298 <__udivmodhi4_loop>:
    1298:	aa 1f       	adc	r26, r26

0000129a <.Loc.5>:
    129a:	bb 1f       	adc	r27, r27

0000129c <.Loc.6>:
    129c:	a6 17       	cp	r26, r22

0000129e <.Loc.7>:
    129e:	b7 07       	cpc	r27, r23

000012a0 <.Loc.8>:
    12a0:	10 f0       	brcs	.+4      	; 0x12a6 <__udivmodhi4_ep>

000012a2 <.Loc.9>:
    12a2:	a6 1b       	sub	r26, r22

000012a4 <.Loc.10>:
    12a4:	b7 0b       	sbc	r27, r23

000012a6 <__udivmodhi4_ep>:
    12a6:	88 1f       	adc	r24, r24

000012a8 <.Loc.12>:
    12a8:	99 1f       	adc	r25, r25

000012aa <.Loc.13>:
    12aa:	5a 95       	dec	r21

000012ac <.Loc.14>:
    12ac:	a9 f7       	brne	.-22     	; 0x1298 <__udivmodhi4_loop>

000012ae <.Loc.15>:
    12ae:	80 95       	com	r24

000012b0 <.Loc.16>:
    12b0:	90 95       	com	r25

000012b2 <.Loc.17>:
    12b2:	bc 01       	movw	r22, r24

000012b4 <.Loc.18>:
    12b4:	cd 01       	movw	r24, r26

000012b6 <.Loc.19>:
    12b6:	08 95       	ret

000012b8 <__subsf3>:
    12b8:	50 58       	subi	r21, 0x80	; 128

000012ba <__addsf3>:
    12ba:	bb 27       	eor	r27, r27
    12bc:	aa 27       	eor	r26, r26
    12be:	0e 94 74 09 	call	0x12e8	; 0x12e8 <__addsf3x>
    12c2:	0c 94 c5 0a 	jmp	0x158a	; 0x158a <__fp_round>

000012c6 <.L^B1>:
    12c6:	0e 94 b7 0a 	call	0x156e	; 0x156e <__fp_pscA>
    12ca:	38 f0       	brcs	.+14     	; 0x12da <.L_nan>
    12cc:	0e 94 be 0a 	call	0x157c	; 0x157c <__fp_pscB>
    12d0:	20 f0       	brcs	.+8      	; 0x12da <.L_nan>
    12d2:	39 f4       	brne	.+14     	; 0x12e2 <.L_inf>
    12d4:	9f 3f       	cpi	r25, 0xFF	; 255
    12d6:	19 f4       	brne	.+6      	; 0x12de <.L_infB>
    12d8:	26 f4       	brtc	.+8      	; 0x12e2 <.L_inf>

000012da <.L_nan>:
    12da:	0c 94 b4 0a 	jmp	0x1568	; 0x1568 <__fp_nan>

000012de <.L_infB>:
    12de:	0e f4       	brtc	.+2      	; 0x12e2 <.L_inf>
    12e0:	e0 95       	com	r30

000012e2 <.L_inf>:
    12e2:	e7 fb       	bst	r30, 7
    12e4:	0c 94 ae 0a 	jmp	0x155c	; 0x155c <__fp_inf>

000012e8 <__addsf3x>:
    12e8:	e9 2f       	mov	r30, r25
    12ea:	0e 94 d6 0a 	call	0x15ac	; 0x15ac <__fp_split3>
    12ee:	58 f3       	brcs	.-42     	; 0x12c6 <.L^B1>
    12f0:	ba 17       	cp	r27, r26
    12f2:	62 07       	cpc	r22, r18
    12f4:	73 07       	cpc	r23, r19
    12f6:	84 07       	cpc	r24, r20
    12f8:	95 07       	cpc	r25, r21
    12fa:	20 f0       	brcs	.+8      	; 0x1304 <.L2^B1>
    12fc:	79 f4       	brne	.+30     	; 0x131c <.L4^B1>
    12fe:	a6 f5       	brtc	.+104    	; 0x1368 <.L_add>
    1300:	0c 94 f8 0a 	jmp	0x15f0	; 0x15f0 <__fp_zero>

00001304 <.L2^B1>:
    1304:	0e f4       	brtc	.+2      	; 0x1308 <.L3^B1>
    1306:	e0 95       	com	r30

00001308 <.L3^B1>:
    1308:	0b 2e       	mov	r0, r27
    130a:	ba 2f       	mov	r27, r26
    130c:	a0 2d       	mov	r26, r0
    130e:	0b 01       	movw	r0, r22
    1310:	b9 01       	movw	r22, r18
    1312:	90 01       	movw	r18, r0
    1314:	0c 01       	movw	r0, r24
    1316:	ca 01       	movw	r24, r20
    1318:	a0 01       	movw	r20, r0
    131a:	11 24       	eor	r1, r1

0000131c <.L4^B1>:
    131c:	ff 27       	eor	r31, r31
    131e:	59 1b       	sub	r21, r25

00001320 <.L5^B1>:
    1320:	99 f0       	breq	.+38     	; 0x1348 <.L7^B1>
    1322:	59 3f       	cpi	r21, 0xF9	; 249
    1324:	50 f4       	brcc	.+20     	; 0x133a <.L6^B1>
    1326:	50 3e       	cpi	r21, 0xE0	; 224
    1328:	68 f1       	brcs	.+90     	; 0x1384 <.L_ret>
    132a:	1a 16       	cp	r1, r26
    132c:	f0 40       	sbci	r31, 0x00	; 0
    132e:	a2 2f       	mov	r26, r18
    1330:	23 2f       	mov	r18, r19
    1332:	34 2f       	mov	r19, r20
    1334:	44 27       	eor	r20, r20
    1336:	58 5f       	subi	r21, 0xF8	; 248
    1338:	f3 cf       	rjmp	.-26     	; 0x1320 <.L5^B1>

0000133a <.L6^B1>:
    133a:	46 95       	lsr	r20
    133c:	37 95       	ror	r19
    133e:	27 95       	ror	r18
    1340:	a7 95       	ror	r26
    1342:	f0 40       	sbci	r31, 0x00	; 0
    1344:	53 95       	inc	r21
    1346:	c9 f7       	brne	.-14     	; 0x133a <.L6^B1>

00001348 <.L7^B1>:
    1348:	7e f4       	brtc	.+30     	; 0x1368 <.L_add>
    134a:	1f 16       	cp	r1, r31
    134c:	ba 0b       	sbc	r27, r26
    134e:	62 0b       	sbc	r22, r18
    1350:	73 0b       	sbc	r23, r19
    1352:	84 0b       	sbc	r24, r20
    1354:	ba f0       	brmi	.+46     	; 0x1384 <.L_ret>

00001356 <.L8^B1>:
    1356:	91 50       	subi	r25, 0x01	; 1
    1358:	a1 f0       	breq	.+40     	; 0x1382 <.L9^B1>
    135a:	ff 0f       	add	r31, r31
    135c:	bb 1f       	adc	r27, r27
    135e:	66 1f       	adc	r22, r22
    1360:	77 1f       	adc	r23, r23
    1362:	88 1f       	adc	r24, r24
    1364:	c2 f7       	brpl	.-16     	; 0x1356 <.L8^B1>
    1366:	0e c0       	rjmp	.+28     	; 0x1384 <.L_ret>

00001368 <.L_add>:
    1368:	ba 0f       	add	r27, r26
    136a:	62 1f       	adc	r22, r18
    136c:	73 1f       	adc	r23, r19
    136e:	84 1f       	adc	r24, r20
    1370:	48 f4       	brcc	.+18     	; 0x1384 <.L_ret>
    1372:	87 95       	ror	r24
    1374:	77 95       	ror	r23
    1376:	67 95       	ror	r22
    1378:	b7 95       	ror	r27
    137a:	f7 95       	ror	r31
    137c:	9e 3f       	cpi	r25, 0xFE	; 254
    137e:	08 f0       	brcs	.+2      	; 0x1382 <.L9^B1>
    1380:	b0 cf       	rjmp	.-160    	; 0x12e2 <.L_inf>

00001382 <.L9^B1>:
    1382:	93 95       	inc	r25

00001384 <.L_ret>:
    1384:	88 0f       	add	r24, r24
    1386:	08 f0       	brcs	.+2      	; 0x138a <.L1^B1>
    1388:	99 27       	eor	r25, r25

0000138a <.L1^B1>:
    138a:	ee 0f       	add	r30, r30
    138c:	97 95       	ror	r25
    138e:	87 95       	ror	r24
    1390:	08 95       	ret

00001392 <__divsf3>:
    1392:	0e 94 dd 09 	call	0x13ba	; 0x13ba <__divsf3x>
    1396:	0c 94 c5 0a 	jmp	0x158a	; 0x158a <__fp_round>

0000139a <.L^B1>:
    139a:	0e 94 be 0a 	call	0x157c	; 0x157c <__fp_pscB>
    139e:	58 f0       	brcs	.+22     	; 0x13b6 <.L_nan>
    13a0:	0e 94 b7 0a 	call	0x156e	; 0x156e <__fp_pscA>
    13a4:	40 f0       	brcs	.+16     	; 0x13b6 <.L_nan>
    13a6:	29 f4       	brne	.+10     	; 0x13b2 <.L_zr>
    13a8:	5f 3f       	cpi	r21, 0xFF	; 255
    13aa:	29 f0       	breq	.+10     	; 0x13b6 <.L_nan>

000013ac <.L_inf>:
    13ac:	0c 94 ae 0a 	jmp	0x155c	; 0x155c <__fp_inf>

000013b0 <.L1^B1>:
    13b0:	51 11       	cpse	r21, r1

000013b2 <.L_zr>:
    13b2:	0c 94 f9 0a 	jmp	0x15f2	; 0x15f2 <__fp_szero>

000013b6 <.L_nan>:
    13b6:	0c 94 b4 0a 	jmp	0x1568	; 0x1568 <__fp_nan>

000013ba <__divsf3x>:
    13ba:	0e 94 d6 0a 	call	0x15ac	; 0x15ac <__fp_split3>
    13be:	68 f3       	brcs	.-38     	; 0x139a <.L^B1>

000013c0 <__divsf3_pse>:
    13c0:	99 23       	and	r25, r25
    13c2:	b1 f3       	breq	.-20     	; 0x13b0 <.L1^B1>
    13c4:	55 23       	and	r21, r21
    13c6:	91 f3       	breq	.-28     	; 0x13ac <.L_inf>
    13c8:	95 1b       	sub	r25, r21
    13ca:	55 0b       	sbc	r21, r21
    13cc:	bb 27       	eor	r27, r27
    13ce:	aa 27       	eor	r26, r26

000013d0 <.L2^B1>:
    13d0:	62 17       	cp	r22, r18
    13d2:	73 07       	cpc	r23, r19
    13d4:	84 07       	cpc	r24, r20
    13d6:	38 f0       	brcs	.+14     	; 0x13e6 <.L3^B1>
    13d8:	9f 5f       	subi	r25, 0xFF	; 255
    13da:	5f 4f       	sbci	r21, 0xFF	; 255
    13dc:	22 0f       	add	r18, r18
    13de:	33 1f       	adc	r19, r19
    13e0:	44 1f       	adc	r20, r20
    13e2:	aa 1f       	adc	r26, r26
    13e4:	a9 f3       	breq	.-22     	; 0x13d0 <.L2^B1>

000013e6 <.L3^B1>:
    13e6:	35 d0       	rcall	.+106    	; 0x1452 <.L_div>
    13e8:	0e 2e       	mov	r0, r30
    13ea:	3a f0       	brmi	.+14     	; 0x13fa <.L5^B1>

000013ec <.L4^B1>:
    13ec:	e0 e8       	ldi	r30, 0x80	; 128
    13ee:	32 d0       	rcall	.+100    	; 0x1454 <.L_div1>
    13f0:	91 50       	subi	r25, 0x01	; 1
    13f2:	50 40       	sbci	r21, 0x00	; 0
    13f4:	e6 95       	lsr	r30
    13f6:	00 1c       	adc	r0, r0
    13f8:	ca f7       	brpl	.-14     	; 0x13ec <.L4^B1>

000013fa <.L5^B1>:
    13fa:	2b d0       	rcall	.+86     	; 0x1452 <.L_div>
    13fc:	fe 2f       	mov	r31, r30
    13fe:	29 d0       	rcall	.+82     	; 0x1452 <.L_div>
    1400:	66 0f       	add	r22, r22
    1402:	77 1f       	adc	r23, r23
    1404:	88 1f       	adc	r24, r24
    1406:	bb 1f       	adc	r27, r27
    1408:	26 17       	cp	r18, r22
    140a:	37 07       	cpc	r19, r23
    140c:	48 07       	cpc	r20, r24
    140e:	ab 07       	cpc	r26, r27
    1410:	b0 e8       	ldi	r27, 0x80	; 128
    1412:	09 f0       	breq	.+2      	; 0x1416 <.L4^B2>
    1414:	bb 0b       	sbc	r27, r27

00001416 <.L4^B2>:
    1416:	80 2d       	mov	r24, r0
    1418:	bf 01       	movw	r22, r30
    141a:	ff 27       	eor	r31, r31
    141c:	93 58       	subi	r25, 0x83	; 131
    141e:	5f 4f       	sbci	r21, 0xFF	; 255
    1420:	3a f0       	brmi	.+14     	; 0x1430 <.L13^B1>
    1422:	9e 3f       	cpi	r25, 0xFE	; 254
    1424:	51 05       	cpc	r21, r1
    1426:	78 f0       	brcs	.+30     	; 0x1446 <.L15^B1>
    1428:	0c 94 ae 0a 	jmp	0x155c	; 0x155c <__fp_inf>

0000142c <.L12^B1>:
    142c:	0c 94 f9 0a 	jmp	0x15f2	; 0x15f2 <__fp_szero>

00001430 <.L13^B1>:
    1430:	5f 3f       	cpi	r21, 0xFF	; 255
    1432:	e4 f3       	brlt	.-8      	; 0x142c <.L12^B1>
    1434:	98 3e       	cpi	r25, 0xE8	; 232
    1436:	d4 f3       	brlt	.-12     	; 0x142c <.L12^B1>

00001438 <.L14^B1>:
    1438:	86 95       	lsr	r24
    143a:	77 95       	ror	r23
    143c:	67 95       	ror	r22
    143e:	b7 95       	ror	r27
    1440:	f7 95       	ror	r31
    1442:	9f 5f       	subi	r25, 0xFF	; 255
    1444:	c9 f7       	brne	.-14     	; 0x1438 <.L14^B1>

00001446 <.L15^B1>:
    1446:	88 0f       	add	r24, r24
    1448:	91 1d       	adc	r25, r1
    144a:	96 95       	lsr	r25
    144c:	87 95       	ror	r24
    144e:	97 f9       	bld	r25, 7
    1450:	08 95       	ret

00001452 <.L_div>:
    1452:	e1 e0       	ldi	r30, 0x01	; 1

00001454 <.L_div1>:
    1454:	66 0f       	add	r22, r22
    1456:	77 1f       	adc	r23, r23
    1458:	88 1f       	adc	r24, r24
    145a:	bb 1f       	adc	r27, r27
    145c:	62 17       	cp	r22, r18
    145e:	73 07       	cpc	r23, r19
    1460:	84 07       	cpc	r24, r20
    1462:	ba 07       	cpc	r27, r26
    1464:	20 f0       	brcs	.+8      	; 0x146e <.L2^B2>
    1466:	62 1b       	sub	r22, r18
    1468:	73 0b       	sbc	r23, r19
    146a:	84 0b       	sbc	r24, r20
    146c:	ba 0b       	sbc	r27, r26

0000146e <.L2^B2>:
    146e:	ee 1f       	adc	r30, r30
    1470:	88 f7       	brcc	.-30     	; 0x1454 <.L_div1>
    1472:	e0 95       	com	r30
    1474:	08 95       	ret

00001476 <__fixsfsi>:
    1476:	0e 94 42 0a 	call	0x1484	; 0x1484 <__fixunssfsi>
    147a:	68 94       	set
    147c:	b1 11       	cpse	r27, r1
    147e:	0c 94 f9 0a 	jmp	0x15f2	; 0x15f2 <__fp_szero>
    1482:	08 95       	ret

00001484 <__fixunssfsi>:
    1484:	0e 94 de 0a 	call	0x15bc	; 0x15bc <__fp_splitA>
    1488:	88 f0       	brcs	.+34     	; 0x14ac <.L_err>
    148a:	9f 57       	subi	r25, 0x7F	; 127
    148c:	98 f0       	brcs	.+38     	; 0x14b4 <.L_zr>
    148e:	b9 2f       	mov	r27, r25
    1490:	99 27       	eor	r25, r25
    1492:	b7 51       	subi	r27, 0x17	; 23
    1494:	b0 f0       	brcs	.+44     	; 0x14c2 <.L4^B1>
    1496:	e1 f0       	breq	.+56     	; 0x14d0 <.L_sign>

00001498 <.L1^B1>:
    1498:	66 0f       	add	r22, r22
    149a:	77 1f       	adc	r23, r23
    149c:	88 1f       	adc	r24, r24
    149e:	99 1f       	adc	r25, r25
    14a0:	1a f0       	brmi	.+6      	; 0x14a8 <.L2^B1>
    14a2:	ba 95       	dec	r27
    14a4:	c9 f7       	brne	.-14     	; 0x1498 <.L1^B1>
    14a6:	14 c0       	rjmp	.+40     	; 0x14d0 <.L_sign>

000014a8 <.L2^B1>:
    14a8:	b1 30       	cpi	r27, 0x01	; 1
    14aa:	91 f0       	breq	.+36     	; 0x14d0 <.L_sign>

000014ac <.L_err>:
    14ac:	0e 94 f8 0a 	call	0x15f0	; 0x15f0 <__fp_zero>
    14b0:	b1 e0       	ldi	r27, 0x01	; 1
    14b2:	08 95       	ret

000014b4 <.L_zr>:
    14b4:	0c 94 f8 0a 	jmp	0x15f0	; 0x15f0 <__fp_zero>

000014b8 <.L3^B1>:
    14b8:	67 2f       	mov	r22, r23
    14ba:	78 2f       	mov	r23, r24
    14bc:	88 27       	eor	r24, r24
    14be:	b8 5f       	subi	r27, 0xF8	; 248
    14c0:	39 f0       	breq	.+14     	; 0x14d0 <.L_sign>

000014c2 <.L4^B1>:
    14c2:	b9 3f       	cpi	r27, 0xF9	; 249
    14c4:	cc f3       	brlt	.-14     	; 0x14b8 <.L3^B1>

000014c6 <.L5^B1>:
    14c6:	86 95       	lsr	r24
    14c8:	77 95       	ror	r23
    14ca:	67 95       	ror	r22
    14cc:	b3 95       	inc	r27
    14ce:	d9 f7       	brne	.-10     	; 0x14c6 <.L5^B1>

000014d0 <.L_sign>:
    14d0:	3e f4       	brtc	.+14     	; 0x14e0 <.L6^B1>
    14d2:	90 95       	com	r25
    14d4:	80 95       	com	r24
    14d6:	70 95       	com	r23
    14d8:	61 95       	neg	r22
    14da:	7f 4f       	sbci	r23, 0xFF	; 255
    14dc:	8f 4f       	sbci	r24, 0xFF	; 255
    14de:	9f 4f       	sbci	r25, 0xFF	; 255

000014e0 <.L6^B1>:
    14e0:	08 95       	ret

000014e2 <__floatunsisf>:
    14e2:	e8 94       	clt
    14e4:	09 c0       	rjmp	.+18     	; 0x14f8 <.L1^B1>

000014e6 <__floatsisf>:
    14e6:	97 fb       	bst	r25, 7
    14e8:	3e f4       	brtc	.+14     	; 0x14f8 <.L1^B1>
    14ea:	90 95       	com	r25
    14ec:	80 95       	com	r24
    14ee:	70 95       	com	r23
    14f0:	61 95       	neg	r22
    14f2:	7f 4f       	sbci	r23, 0xFF	; 255
    14f4:	8f 4f       	sbci	r24, 0xFF	; 255
    14f6:	9f 4f       	sbci	r25, 0xFF	; 255

000014f8 <.L1^B1>:
    14f8:	99 23       	and	r25, r25
    14fa:	a9 f0       	breq	.+42     	; 0x1526 <.L4^B1>
    14fc:	f9 2f       	mov	r31, r25
    14fe:	96 e9       	ldi	r25, 0x96	; 150
    1500:	bb 27       	eor	r27, r27

00001502 <.L2^B1>:
    1502:	93 95       	inc	r25
    1504:	f6 95       	lsr	r31
    1506:	87 95       	ror	r24
    1508:	77 95       	ror	r23
    150a:	67 95       	ror	r22
    150c:	b7 95       	ror	r27
    150e:	f1 11       	cpse	r31, r1
    1510:	f8 cf       	rjmp	.-16     	; 0x1502 <.L2^B1>
    1512:	fa f4       	brpl	.+62     	; 0x1552 <.L_pack>
    1514:	bb 0f       	add	r27, r27
    1516:	11 f4       	brne	.+4      	; 0x151c <.L3^B1>
    1518:	60 ff       	sbrs	r22, 0
    151a:	1b c0       	rjmp	.+54     	; 0x1552 <.L_pack>

0000151c <.L3^B1>:
    151c:	6f 5f       	subi	r22, 0xFF	; 255
    151e:	7f 4f       	sbci	r23, 0xFF	; 255
    1520:	8f 4f       	sbci	r24, 0xFF	; 255
    1522:	9f 4f       	sbci	r25, 0xFF	; 255
    1524:	16 c0       	rjmp	.+44     	; 0x1552 <.L_pack>

00001526 <.L4^B1>:
    1526:	88 23       	and	r24, r24
    1528:	11 f0       	breq	.+4      	; 0x152e <.L5^B1>
    152a:	96 e9       	ldi	r25, 0x96	; 150
    152c:	11 c0       	rjmp	.+34     	; 0x1550 <.L8^B1>

0000152e <.L5^B1>:
    152e:	77 23       	and	r23, r23
    1530:	21 f0       	breq	.+8      	; 0x153a <.L6^B1>
    1532:	9e e8       	ldi	r25, 0x8E	; 142
    1534:	87 2f       	mov	r24, r23
    1536:	76 2f       	mov	r23, r22
    1538:	05 c0       	rjmp	.+10     	; 0x1544 <.L7^B1>

0000153a <.L6^B1>:
    153a:	66 23       	and	r22, r22
    153c:	71 f0       	breq	.+28     	; 0x155a <.L9^B1>
    153e:	96 e8       	ldi	r25, 0x86	; 134
    1540:	86 2f       	mov	r24, r22
    1542:	70 e0       	ldi	r23, 0x00	; 0

00001544 <.L7^B1>:
    1544:	60 e0       	ldi	r22, 0x00	; 0
    1546:	2a f0       	brmi	.+10     	; 0x1552 <.L_pack>

00001548 <.L10^B1>:
    1548:	9a 95       	dec	r25
    154a:	66 0f       	add	r22, r22
    154c:	77 1f       	adc	r23, r23
    154e:	88 1f       	adc	r24, r24

00001550 <.L8^B1>:
    1550:	da f7       	brpl	.-10     	; 0x1548 <.L10^B1>

00001552 <.L_pack>:
    1552:	88 0f       	add	r24, r24
    1554:	96 95       	lsr	r25
    1556:	87 95       	ror	r24
    1558:	97 f9       	bld	r25, 7

0000155a <.L9^B1>:
    155a:	08 95       	ret

0000155c <__fp_inf>:
    155c:	97 f9       	bld	r25, 7
    155e:	9f 67       	ori	r25, 0x7F	; 127
    1560:	80 e8       	ldi	r24, 0x80	; 128
    1562:	70 e0       	ldi	r23, 0x00	; 0
    1564:	60 e0       	ldi	r22, 0x00	; 0
    1566:	08 95       	ret

00001568 <__fp_nan>:
    1568:	9f ef       	ldi	r25, 0xFF	; 255
    156a:	80 ec       	ldi	r24, 0xC0	; 192
    156c:	08 95       	ret

0000156e <__fp_pscA>:
    156e:	00 24       	eor	r0, r0
    1570:	0a 94       	dec	r0
    1572:	16 16       	cp	r1, r22
    1574:	17 06       	cpc	r1, r23
    1576:	18 06       	cpc	r1, r24
    1578:	09 06       	cpc	r0, r25
    157a:	08 95       	ret

0000157c <__fp_pscB>:
    157c:	00 24       	eor	r0, r0
    157e:	0a 94       	dec	r0
    1580:	12 16       	cp	r1, r18
    1582:	13 06       	cpc	r1, r19
    1584:	14 06       	cpc	r1, r20
    1586:	05 06       	cpc	r0, r21
    1588:	08 95       	ret

0000158a <__fp_round>:
    158a:	09 2e       	mov	r0, r25
    158c:	03 94       	inc	r0
    158e:	00 0c       	add	r0, r0
    1590:	11 f4       	brne	.+4      	; 0x1596 <.L1^B1>
    1592:	88 23       	and	r24, r24
    1594:	52 f0       	brmi	.+20     	; 0x15aa <.L3^B1>

00001596 <.L1^B1>:
    1596:	bb 0f       	add	r27, r27
    1598:	40 f4       	brcc	.+16     	; 0x15aa <.L3^B1>
    159a:	bf 2b       	or	r27, r31
    159c:	11 f4       	brne	.+4      	; 0x15a2 <.L2^B1>
    159e:	60 ff       	sbrs	r22, 0
    15a0:	04 c0       	rjmp	.+8      	; 0x15aa <.L3^B1>

000015a2 <.L2^B1>:
    15a2:	6f 5f       	subi	r22, 0xFF	; 255
    15a4:	7f 4f       	sbci	r23, 0xFF	; 255
    15a6:	8f 4f       	sbci	r24, 0xFF	; 255
    15a8:	9f 4f       	sbci	r25, 0xFF	; 255

000015aa <.L3^B1>:
    15aa:	08 95       	ret

000015ac <__fp_split3>:
    15ac:	57 fd       	sbrc	r21, 7
    15ae:	90 58       	subi	r25, 0x80	; 128
    15b0:	44 0f       	add	r20, r20
    15b2:	55 1f       	adc	r21, r21
    15b4:	59 f0       	breq	.+22     	; 0x15cc <.L4^B1>
    15b6:	5f 3f       	cpi	r21, 0xFF	; 255
    15b8:	71 f0       	breq	.+28     	; 0x15d6 <.L5^B1>

000015ba <.L1^B1>:
    15ba:	47 95       	ror	r20

000015bc <__fp_splitA>:
    15bc:	88 0f       	add	r24, r24
    15be:	97 fb       	bst	r25, 7
    15c0:	99 1f       	adc	r25, r25
    15c2:	61 f0       	breq	.+24     	; 0x15dc <.L6^B1>
    15c4:	9f 3f       	cpi	r25, 0xFF	; 255
    15c6:	79 f0       	breq	.+30     	; 0x15e6 <.L7^B1>

000015c8 <.L3^B1>:
    15c8:	87 95       	ror	r24
    15ca:	08 95       	ret

000015cc <.L4^B1>:
    15cc:	12 16       	cp	r1, r18
    15ce:	13 06       	cpc	r1, r19
    15d0:	14 06       	cpc	r1, r20
    15d2:	55 1f       	adc	r21, r21
    15d4:	f2 cf       	rjmp	.-28     	; 0x15ba <.L1^B1>

000015d6 <.L5^B1>:
    15d6:	46 95       	lsr	r20
    15d8:	f1 df       	rcall	.-30     	; 0x15bc <__fp_splitA>
    15da:	08 c0       	rjmp	.+16     	; 0x15ec <.L8^B1>

000015dc <.L6^B1>:
    15dc:	16 16       	cp	r1, r22
    15de:	17 06       	cpc	r1, r23
    15e0:	18 06       	cpc	r1, r24
    15e2:	99 1f       	adc	r25, r25
    15e4:	f1 cf       	rjmp	.-30     	; 0x15c8 <.L3^B1>

000015e6 <.L7^B1>:
    15e6:	86 95       	lsr	r24
    15e8:	71 05       	cpc	r23, r1
    15ea:	61 05       	cpc	r22, r1

000015ec <.L8^B1>:
    15ec:	08 94       	sec
    15ee:	08 95       	ret

000015f0 <__fp_zero>:
    15f0:	e8 94       	clt

000015f2 <__fp_szero>:
    15f2:	bb 27       	eor	r27, r27
    15f4:	66 27       	eor	r22, r22
    15f6:	77 27       	eor	r23, r23
    15f8:	cb 01       	movw	r24, r22
    15fa:	97 f9       	bld	r25, 7
    15fc:	08 95       	ret

000015fe <__mulsf3>:
    15fe:	0e 94 12 0b 	call	0x1624	; 0x1624 <__mulsf3x>
    1602:	0c 94 c5 0a 	jmp	0x158a	; 0x158a <__fp_round>

00001606 <.L^B1>:
    1606:	0e 94 b7 0a 	call	0x156e	; 0x156e <__fp_pscA>
    160a:	38 f0       	brcs	.+14     	; 0x161a <.L1^B1>
    160c:	0e 94 be 0a 	call	0x157c	; 0x157c <__fp_pscB>
    1610:	20 f0       	brcs	.+8      	; 0x161a <.L1^B1>
    1612:	95 23       	and	r25, r21
    1614:	11 f0       	breq	.+4      	; 0x161a <.L1^B1>
    1616:	0c 94 ae 0a 	jmp	0x155c	; 0x155c <__fp_inf>

0000161a <.L1^B1>:
    161a:	0c 94 b4 0a 	jmp	0x1568	; 0x1568 <__fp_nan>

0000161e <.L2^B1>:
    161e:	11 24       	eor	r1, r1
    1620:	0c 94 f9 0a 	jmp	0x15f2	; 0x15f2 <__fp_szero>

00001624 <__mulsf3x>:
    1624:	0e 94 d6 0a 	call	0x15ac	; 0x15ac <__fp_split3>
    1628:	70 f3       	brcs	.-36     	; 0x1606 <.L^B1>

0000162a <__mulsf3_pse>:
    162a:	95 9f       	mul	r25, r21
    162c:	c1 f3       	breq	.-16     	; 0x161e <.L2^B1>
    162e:	95 0f       	add	r25, r21
    1630:	50 e0       	ldi	r21, 0x00	; 0
    1632:	55 1f       	adc	r21, r21
    1634:	62 9f       	mul	r22, r18
    1636:	f0 01       	movw	r30, r0
    1638:	72 9f       	mul	r23, r18
    163a:	bb 27       	eor	r27, r27
    163c:	f0 0d       	add	r31, r0
    163e:	b1 1d       	adc	r27, r1
    1640:	63 9f       	mul	r22, r19
    1642:	aa 27       	eor	r26, r26
    1644:	f0 0d       	add	r31, r0
    1646:	b1 1d       	adc	r27, r1
    1648:	aa 1f       	adc	r26, r26
    164a:	64 9f       	mul	r22, r20
    164c:	66 27       	eor	r22, r22
    164e:	b0 0d       	add	r27, r0
    1650:	a1 1d       	adc	r26, r1
    1652:	66 1f       	adc	r22, r22
    1654:	82 9f       	mul	r24, r18
    1656:	22 27       	eor	r18, r18
    1658:	b0 0d       	add	r27, r0
    165a:	a1 1d       	adc	r26, r1
    165c:	62 1f       	adc	r22, r18
    165e:	73 9f       	mul	r23, r19
    1660:	b0 0d       	add	r27, r0
    1662:	a1 1d       	adc	r26, r1
    1664:	62 1f       	adc	r22, r18
    1666:	83 9f       	mul	r24, r19
    1668:	a0 0d       	add	r26, r0
    166a:	61 1d       	adc	r22, r1
    166c:	22 1f       	adc	r18, r18
    166e:	74 9f       	mul	r23, r20
    1670:	33 27       	eor	r19, r19
    1672:	a0 0d       	add	r26, r0
    1674:	61 1d       	adc	r22, r1
    1676:	23 1f       	adc	r18, r19
    1678:	84 9f       	mul	r24, r20
    167a:	60 0d       	add	r22, r0
    167c:	21 1d       	adc	r18, r1
    167e:	82 2f       	mov	r24, r18
    1680:	76 2f       	mov	r23, r22
    1682:	6a 2f       	mov	r22, r26
    1684:	11 24       	eor	r1, r1
    1686:	9f 57       	subi	r25, 0x7F	; 127
    1688:	50 40       	sbci	r21, 0x00	; 0
    168a:	9a f0       	brmi	.+38     	; 0x16b2 <.L13^B1>
    168c:	f1 f0       	breq	.+60     	; 0x16ca <.L15^B1>

0000168e <.L10^B1>:
    168e:	88 23       	and	r24, r24
    1690:	4a f0       	brmi	.+18     	; 0x16a4 <.L11^B1>
    1692:	ee 0f       	add	r30, r30
    1694:	ff 1f       	adc	r31, r31
    1696:	bb 1f       	adc	r27, r27
    1698:	66 1f       	adc	r22, r22
    169a:	77 1f       	adc	r23, r23
    169c:	88 1f       	adc	r24, r24
    169e:	91 50       	subi	r25, 0x01	; 1
    16a0:	50 40       	sbci	r21, 0x00	; 0
    16a2:	a9 f7       	brne	.-22     	; 0x168e <.L10^B1>

000016a4 <.L11^B1>:
    16a4:	9e 3f       	cpi	r25, 0xFE	; 254
    16a6:	51 05       	cpc	r21, r1
    16a8:	80 f0       	brcs	.+32     	; 0x16ca <.L15^B1>
    16aa:	0c 94 ae 0a 	jmp	0x155c	; 0x155c <__fp_inf>

000016ae <.L12^B1>:
    16ae:	0c 94 f9 0a 	jmp	0x15f2	; 0x15f2 <__fp_szero>

000016b2 <.L13^B1>:
    16b2:	5f 3f       	cpi	r21, 0xFF	; 255
    16b4:	e4 f3       	brlt	.-8      	; 0x16ae <.L12^B1>
    16b6:	98 3e       	cpi	r25, 0xE8	; 232
    16b8:	d4 f3       	brlt	.-12     	; 0x16ae <.L12^B1>

000016ba <.L14^B1>:
    16ba:	86 95       	lsr	r24
    16bc:	77 95       	ror	r23
    16be:	67 95       	ror	r22
    16c0:	b7 95       	ror	r27
    16c2:	f7 95       	ror	r31
    16c4:	e7 95       	ror	r30
    16c6:	9f 5f       	subi	r25, 0xFF	; 255
    16c8:	c1 f7       	brne	.-16     	; 0x16ba <.L14^B1>

000016ca <.L15^B1>:
    16ca:	fe 2b       	or	r31, r30
    16cc:	88 0f       	add	r24, r24
    16ce:	91 1d       	adc	r25, r1
    16d0:	96 95       	lsr	r25
    16d2:	87 95       	ror	r24
    16d4:	97 f9       	bld	r25, 7
    16d6:	08 95       	ret

000016d8 <_exit>:
    16d8:	f8 94       	cli

000016da <__stop_program>:
    16da:	ff cf       	rjmp	.-2      	; 0x16da <__stop_program>
