
bin\Debug\AGV_PROJECT_B2.elf:     file format elf32-avr

Sections:
Idx Name          Size      VMA       LMA       File off  Algn
  0 .data         00000014  00800200  000013f0  000014a4  2**0
                  CONTENTS, ALLOC, LOAD, DATA
  1 .text         000013f0  00000000  00000000  000000b4  2**1
                  CONTENTS, ALLOC, LOAD, READONLY, CODE
  2 .bss          0000002a  00800214  00800214  000014b8  2**0
                  ALLOC
  3 .fuse         00000003  00820000  00820000  000014b8  2**0
                  CONTENTS, ALLOC, LOAD, DATA
  4 .comment      00000012  00000000  00000000  000014bb  2**0
                  CONTENTS, READONLY
  5 .note.gnu.avr.deviceinfo 00000040  00000000  00000000  000014d0  2**2
                  CONTENTS, READONLY, OCTETS
  6 .debug_aranges 000001b8  00000000  00000000  00001510  2**3
                  CONTENTS, READONLY, DEBUGGING, OCTETS
  7 .debug_info   00002587  00000000  00000000  000016c8  2**0
                  CONTENTS, READONLY, DEBUGGING, OCTETS
  8 .debug_abbrev 00001561  00000000  00000000  00003c4f  2**0
                  CONTENTS, READONLY, DEBUGGING, OCTETS
  9 .debug_line   0000228b  00000000  00000000  000051b0  2**0
                  CONTENTS, READONLY, DEBUGGING, OCTETS
 10 .debug_frame  000004b8  00000000  00000000  0000743c  2**2
                  CONTENTS, READONLY, DEBUGGING, OCTETS
 11 .debug_str    000009e1  00000000  00000000  000078f4  2**0
                  CONTENTS, READONLY, DEBUGGING, OCTETS
 12 .debug_line_str 0000020a  00000000  00000000  000082d5  2**0
                  CONTENTS, READONLY, DEBUGGING, OCTETS
 13 .debug_loclists 000008ef  00000000  00000000  000084df  2**0
                  CONTENTS, READONLY, DEBUGGING, OCTETS
 14 .debug_rnglists 0000002a  00000000  00000000  00008dce  2**0
                  CONTENTS, READONLY, DEBUGGING, OCTETS

Disassembly of section .text:

00000000 <__vectors>:
       0:	0c 94 72 00 	jmp	0xe4	; 0xe4 <__ctors_end>
       4:	0c 94 93 00 	jmp	0x126	; 0x126 <__bad_interrupt>
       8:	0c 94 27 01 	jmp	0x24e	; 0x24e <__vector_2>
       c:	0c 94 28 01 	jmp	0x250	; 0x250 <__vector_3>
      10:	0c 94 93 00 	jmp	0x126	; 0x126 <__bad_interrupt>
      14:	0c 94 81 02 	jmp	0x502	; 0x502 <__vector_5>
      18:	0c 94 ad 02 	jmp	0x55a	; 0x55a <__vector_6>
      1c:	0c 94 93 00 	jmp	0x126	; 0x126 <__bad_interrupt>
      20:	0c 94 93 00 	jmp	0x126	; 0x126 <__bad_interrupt>
      24:	0c 94 93 00 	jmp	0x126	; 0x126 <__bad_interrupt>
      28:	0c 94 93 00 	jmp	0x126	; 0x126 <__bad_interrupt>
      2c:	0c 94 93 00 	jmp	0x126	; 0x126 <__bad_interrupt>
      30:	0c 94 93 00 	jmp	0x126	; 0x126 <__bad_interrupt>
      34:	0c 94 93 00 	jmp	0x126	; 0x126 <__bad_interrupt>
      38:	0c 94 93 00 	jmp	0x126	; 0x126 <__bad_interrupt>
      3c:	0c 94 93 00 	jmp	0x126	; 0x126 <__bad_interrupt>
      40:	0c 94 93 00 	jmp	0x126	; 0x126 <__bad_interrupt>
      44:	0c 94 93 00 	jmp	0x126	; 0x126 <__bad_interrupt>
      48:	0c 94 93 00 	jmp	0x126	; 0x126 <__bad_interrupt>
      4c:	0c 94 93 00 	jmp	0x126	; 0x126 <__bad_interrupt>
      50:	0c 94 93 00 	jmp	0x126	; 0x126 <__bad_interrupt>
      54:	0c 94 93 00 	jmp	0x126	; 0x126 <__bad_interrupt>
      58:	0c 94 93 00 	jmp	0x126	; 0x126 <__bad_interrupt>
      5c:	0c 94 93 00 	jmp	0x126	; 0x126 <__bad_interrupt>
      60:	0c 94 93 00 	jmp	0x126	; 0x126 <__bad_interrupt>
      64:	0c 94 93 00 	jmp	0x126	; 0x126 <__bad_interrupt>
      68:	0c 94 93 00 	jmp	0x126	; 0x126 <__bad_interrupt>
      6c:	0c 94 93 00 	jmp	0x126	; 0x126 <__bad_interrupt>
      70:	0c 94 93 00 	jmp	0x126	; 0x126 <__bad_interrupt>
      74:	0c 94 93 00 	jmp	0x126	; 0x126 <__bad_interrupt>
      78:	0c 94 93 00 	jmp	0x126	; 0x126 <__bad_interrupt>
      7c:	0c 94 93 00 	jmp	0x126	; 0x126 <__bad_interrupt>
      80:	0c 94 93 00 	jmp	0x126	; 0x126 <__bad_interrupt>
      84:	0c 94 93 00 	jmp	0x126	; 0x126 <__bad_interrupt>
      88:	0c 94 93 00 	jmp	0x126	; 0x126 <__bad_interrupt>
      8c:	0c 94 93 00 	jmp	0x126	; 0x126 <__bad_interrupt>
      90:	0c 94 93 00 	jmp	0x126	; 0x126 <__bad_interrupt>
      94:	0c 94 93 00 	jmp	0x126	; 0x126 <__bad_interrupt>
      98:	0c 94 93 00 	jmp	0x126	; 0x126 <__bad_interrupt>
      9c:	0c 94 93 00 	jmp	0x126	; 0x126 <__bad_interrupt>
      a0:	0c 94 93 00 	jmp	0x126	; 0x126 <__bad_interrupt>
      a4:	0c 94 93 00 	jmp	0x126	; 0x126 <__bad_interrupt>
      a8:	0c 94 93 00 	jmp	0x126	; 0x126 <__bad_interrupt>
      ac:	0c 94 93 00 	jmp	0x126	; 0x126 <__bad_interrupt>
      b0:	0c 94 93 00 	jmp	0x126	; 0x126 <__bad_interrupt>
      b4:	0c 94 93 00 	jmp	0x126	; 0x126 <__bad_interrupt>
      b8:	0c 94 93 00 	jmp	0x126	; 0x126 <__bad_interrupt>
      bc:	0c 94 93 00 	jmp	0x126	; 0x126 <__bad_interrupt>
      c0:	0c 94 93 00 	jmp	0x126	; 0x126 <__bad_interrupt>
      c4:	0c 94 93 00 	jmp	0x126	; 0x126 <__bad_interrupt>
      c8:	0c 94 93 00 	jmp	0x126	; 0x126 <__bad_interrupt>
      cc:	0c 94 93 00 	jmp	0x126	; 0x126 <__bad_interrupt>
      d0:	0c 94 93 00 	jmp	0x126	; 0x126 <__bad_interrupt>
      d4:	0c 94 93 00 	jmp	0x126	; 0x126 <__bad_interrupt>
      d8:	0c 94 93 00 	jmp	0x126	; 0x126 <__bad_interrupt>
      dc:	0c 94 93 00 	jmp	0x126	; 0x126 <__bad_interrupt>
      e0:	0c 94 93 00 	jmp	0x126	; 0x126 <__bad_interrupt>

000000e4 <__ctors_end>:
      e4:	11 24       	eor	r1, r1
      e6:	1f be       	out	0x3f, r1	; 63
      e8:	cf ef       	ldi	r28, 0xFF	; 255
      ea:	d1 e2       	ldi	r29, 0x21	; 33
      ec:	de bf       	out	0x3e, r29	; 62
      ee:	cd bf       	out	0x3d, r28	; 61
      f0:	00 e0       	ldi	r16, 0x00	; 0
      f2:	0c bf       	out	0x3c, r16	; 60

000000f4 <__do_copy_data>:
      f4:	12 e0       	ldi	r17, 0x02	; 2

000000f6 <.Loc.1>:
      f6:	a0 e0       	ldi	r26, 0x00	; 0

000000f8 <.Loc.2>:
      f8:	b2 e0       	ldi	r27, 0x02	; 2

000000fa <.Loc.3>:
      fa:	e0 ef       	ldi	r30, 0xF0	; 240

000000fc <.Loc.4>:
      fc:	f3 e1       	ldi	r31, 0x13	; 19

000000fe <.Loc.5>:
      fe:	00 e0       	ldi	r16, 0x00	; 0

00000100 <.Loc.6>:
     100:	0b bf       	out	0x3b, r16	; 59

00000102 <.Loc.7>:
     102:	02 c0       	rjmp	.+4      	; 0x108 <.L__do_copy_data_start>

00000104 <.L__do_copy_data_loop>:
     104:	07 90       	elpm	r0, Z+

00000106 <.Loc.9>:
     106:	0d 92       	st	X+, r0

00000108 <.L__do_copy_data_start>:
     108:	a4 31       	cpi	r26, 0x14	; 20

0000010a <.Loc.11>:
     10a:	b1 07       	cpc	r27, r17

0000010c <.Loc.12>:
     10c:	d9 f7       	brne	.-10     	; 0x104 <.L__do_copy_data_loop>

0000010e <__do_clear_bss>:
     10e:	22 e0       	ldi	r18, 0x02	; 2

00000110 <.Loc.1>:
     110:	a4 e1       	ldi	r26, 0x14	; 20

00000112 <.Loc.2>:
     112:	b2 e0       	ldi	r27, 0x02	; 2

00000114 <.Loc.3>:
     114:	01 c0       	rjmp	.+2      	; 0x118 <.Loc.5>

00000116 <.Loc.4>:
     116:	1d 92       	st	X+, r1

00000118 <.Loc.5>:
     118:	ae 33       	cpi	r26, 0x3E	; 62

0000011a <.Loc.6>:
     11a:	b2 07       	cpc	r27, r18

0000011c <.Loc.7>:
     11c:	e1 f7       	brne	.-8      	; 0x116 <.Loc.4>

0000011e <L0^A>:
     11e:	0e 94 1d 01 	call	0x23a	; 0x23a <main>
     122:	0c 94 f6 09 	jmp	0x13ec	; 0x13ec <_exit>

00000126 <__bad_interrupt>:
     126:	0c 94 00 00 	jmp	0	; 0x0 <__vectors>

0000012a <init_ultrasoon_sensor>:


void init_ultrasoon_sensor(void)
{
    //ULTRASOON Echo als INPUT configureren
    ULTRASOON_ECHO_R_DDR &= ~(1 << ULTRASOON_ECHO_R);
     12a:	3f 98       	cbi	0x07, 7	; 7

0000012c <.Loc.3>:
    ULTRASOON_ECHO_L_DDR &= ~(1 << ULTRASOON_ECHO_L);
     12c:	0e 98       	cbi	0x01, 6	; 1

0000012e <.Loc.5>:

    //ULTRASOON Trigger als OUTPUT configureren
    ULTRASOON_TRIGGER_R_DDR |= (1 << ULTRASOON_TRIGGER_R);
     12e:	3e 9a       	sbi	0x07, 6	; 7

00000130 <.Loc.7>:
    ULTRASOON_TRIGGER_L_DDR |= (1 << ULTRASOON_TRIGGER_L);
     130:	0f 9a       	sbi	0x01, 7	; 1

00000132 <.Loc.10>:

    //ULTRASOON Echo laagzetten
    ULTRASOON_TRIGGER_R_PORT &= ~(1 << ULTRASOON_ECHO_R);
     132:	47 98       	cbi	0x08, 7	; 8

00000134 <.Loc.11>:
    ULTRASOON_TRIGGER_L_PORT &= ~(1 << ULTRASOON_ECHO_L);
     134:	16 98       	cbi	0x02, 6	; 2

00000136 <.Loc.13>:
}
     136:	08 95       	ret

00000138 <init_infrarood_sensor>:

void init_infrarood_sensor(void)
{
    //INFRAROOD AGV als input configureren
    INFRAROOD_AGV_R_DDR &= ~(1 << INFRAROOD_AGV_R);
     138:	52 98       	cbi	0x0a, 2	; 10

0000013a <.Loc.17>:
    INFRAROOD_AGV_L_DDR &= ~(1 << INFRAROOD_AGV_L);
     13a:	51 98       	cbi	0x0a, 1	; 10

0000013c <.Loc.19>:

    //INFRAROOD MODULE als input configureren
    INFRAROOD_MODULE_R_DDR &= ~(1 << INFRAROOD_MODULE_R);
     13c:	6d 98       	cbi	0x0d, 5	; 13

0000013e <.Loc.21>:
    INFRAROOD_MODULE_L_DDR &= ~(1 << INFRAROOD_MODULE_L);
     13e:	6c 98       	cbi	0x0d, 4	; 13

00000140 <.Loc.23>:
}
     140:	08 95       	ret

00000142 <init_knopjes>:

void init_knopjes(void)
{
    //KNOPJES als input configuren
    KNOP_1_DDR &= ~(1 << KNOP_1);
     142:	08 98       	cbi	0x01, 0	; 1

00000144 <.Loc.27>:
    KNOP_2_DDR &= ~(1 << KNOP_2);
     144:	09 98       	cbi	0x01, 1	; 1

00000146 <.Loc.29>:
    KNOP_3_DDR &= ~(1 << KNOP_3);
     146:	0a 98       	cbi	0x01, 2	; 1

00000148 <.Loc.31>:
    KNOP_4_DDR &= ~(1 << KNOP_4);
     148:	0b 98       	cbi	0x01, 3	; 1

0000014a <.Loc.33>:
    KNOP_5_DDR &= ~(1 << KNOP_5);
     14a:	0c 98       	cbi	0x01, 4	; 1

0000014c <.Loc.35>:
    KNOP_6_DDR &= ~(1 << KNOP_6);
     14c:	0d 98       	cbi	0x01, 5	; 1

0000014e <.Loc.37>:

    //KNOPJES pull-up aanzetten
    KNOP_1_PORT |= (1 << KNOP_1);
     14e:	10 9a       	sbi	0x02, 0	; 2

00000150 <.Loc.39>:
    KNOP_2_PORT |= (1 << KNOP_2);
     150:	11 9a       	sbi	0x02, 1	; 2

00000152 <.Loc.41>:
    KNOP_3_PORT |= (1 << KNOP_3);
     152:	12 9a       	sbi	0x02, 2	; 2

00000154 <.Loc.43>:
    KNOP_4_PORT |= (1 << KNOP_4);
     154:	13 9a       	sbi	0x02, 3	; 2

00000156 <.Loc.45>:
    KNOP_5_PORT |= (1 << KNOP_5);
     156:	14 9a       	sbi	0x02, 4	; 2

00000158 <.Loc.47>:
    KNOP_6_PORT |= (1 << KNOP_6);
     158:	15 9a       	sbi	0x02, 5	; 2

0000015a <.Loc.49>:
}
     15a:	08 95       	ret

0000015c <init_led>:

void init_led(void)
{
    //LED als output configuren
    LED_1_DDR |= (1 << LED_1);
     15c:	22 9a       	sbi	0x04, 2	; 4

0000015e <.Loc.53>:
    LED_2_DDR |= (1 << LED_2);
     15e:	21 9a       	sbi	0x04, 1	; 4

00000160 <.Loc.55>:
    LED_3_DDR |= (1 << LED_3);
     160:	20 9a       	sbi	0x04, 0	; 4

00000162 <.Loc.57>:

    //LED laag zetten
    LED_1_PORT |= (1 << LED_1);
     162:	2a 9a       	sbi	0x05, 2	; 5

00000164 <.Loc.59>:
    LED_2_PORT |= (1 << LED_2);
     164:	29 9a       	sbi	0x05, 1	; 5

00000166 <.Loc.61>:
    LED_3_PORT |= (1 << LED_3);
     166:	28 9a       	sbi	0x05, 0	; 5

00000168 <.Loc.63>:
}
     168:	08 95       	ret

0000016a <init_h_brug_dual>:

void init_h_brug_dual(void)
{
    //PWM als output configureren
    PWM_R_DDR |= (1 << PWM_R);
     16a:	e1 e0       	ldi	r30, 0x01	; 1
     16c:	f1 e0       	ldi	r31, 0x01	; 1
     16e:	80 81       	ld	r24, Z

00000170 <.Loc.66>:
     170:	88 60       	ori	r24, 0x08	; 8
     172:	80 83       	st	Z, r24

00000174 <.Loc.67>:
    PWM_L_DDR |= (1 << PWM_L);
     174:	aa e0       	ldi	r26, 0x0A	; 10
     176:	b1 e0       	ldi	r27, 0x01	; 1
     178:	8c 91       	ld	r24, X

0000017a <.Loc.68>:
     17a:	88 60       	ori	r24, 0x08	; 8
     17c:	8c 93       	st	X, r24

0000017e <.Loc.69>:

    //PWM laagzetten
    PWM_R_PORT &= ~(1 << PWM_R);
     17e:	e2 e0       	ldi	r30, 0x02	; 2
     180:	f1 e0       	ldi	r31, 0x01	; 1
     182:	80 81       	ld	r24, Z
     184:	87 7f       	andi	r24, 0xF7	; 247
     186:	80 83       	st	Z, r24

00000188 <.Loc.71>:
    PWM_L_PORT &= ~(1 << PWM_L);
     188:	eb e0       	ldi	r30, 0x0B	; 11
     18a:	f1 e0       	ldi	r31, 0x01	; 1
     18c:	80 81       	ld	r24, Z
     18e:	87 7f       	andi	r24, 0xF7	; 247
     190:	80 83       	st	Z, r24

00000192 <.Loc.73>:

    //IN als output
    PWM_IN_1_DDR |= (1 << PWM_IN_1); // IN 1 --> motor A = rechts
     192:	8c 91       	ld	r24, X

00000194 <.Loc.74>:
     194:	80 64       	ori	r24, 0x40	; 64
     196:	8c 93       	st	X, r24

00000198 <.Loc.75>:
    PWM_IN_2_DDR |= (1 << PWM_IN_2); // IN 2 --> motor A = rechts
     198:	8c 91       	ld	r24, X

0000019a <.Loc.76>:
     19a:	80 61       	ori	r24, 0x10	; 16
     19c:	8c 93       	st	X, r24

0000019e <.Loc.77>:
    PWM_IN_3_DDR |= (1 << PWM_IN_3); // IN 3 --> motor B = links
     19e:	8c 91       	ld	r24, X

000001a0 <.Loc.78>:
     1a0:	84 60       	ori	r24, 0x04	; 4
     1a2:	8c 93       	st	X, r24

000001a4 <.Loc.79>:
    PWM_IN_4_DDR |= (1 << PWM_IN_4); // IN 4 --> motor B = links
     1a4:	8c 91       	ld	r24, X

000001a6 <.Loc.80>:
     1a6:	81 60       	ori	r24, 0x01	; 1
     1a8:	8c 93       	st	X, r24

000001aa <.Loc.81>:

    //IN laagzetten
    PWM_IN_1_PORT &= ~(1 << PWM_IN_1); // IN 1 --> motor A = rechts
     1aa:	80 81       	ld	r24, Z
     1ac:	8f 7b       	andi	r24, 0xBF	; 191
     1ae:	80 83       	st	Z, r24

000001b0 <.Loc.83>:
    PWM_IN_2_PORT &= ~(1 << PWM_IN_2); // IN 2 --> motor A = rechts
     1b0:	80 81       	ld	r24, Z
     1b2:	8f 7e       	andi	r24, 0xEF	; 239
     1b4:	80 83       	st	Z, r24

000001b6 <.Loc.85>:
    PWM_IN_3_PORT &= ~(1 << PWM_IN_3); // IN 3 --> motor B = links
     1b6:	80 81       	ld	r24, Z
     1b8:	8b 7f       	andi	r24, 0xFB	; 251
     1ba:	80 83       	st	Z, r24

000001bc <.Loc.87>:
    PWM_IN_4_PORT &= ~(1 << PWM_IN_4); // IN 4 --> motor B = links
     1bc:	80 81       	ld	r24, Z
     1be:	8e 7f       	andi	r24, 0xFE	; 254
     1c0:	80 83       	st	Z, r24

000001c2 <.Loc.89>:
}
     1c2:	08 95       	ret

000001c4 <init_noodstop>:

void init_noodstop(void)
{
    //NOODSTOP als input configureren
    NOODSTOP_DDR &= ~(1 << NOODSTOP);
     1c4:	50 98       	cbi	0x0a, 0	; 10

000001c6 <.Loc.93>:
}
     1c6:	08 95       	ret

000001c8 <init_timer_PWM>:

void init_timer_PWM(void)
{
    ICR5 = TOP_VALUE;
     1c8:	20 e4       	ldi	r18, 0x40	; 64
     1ca:	3c e9       	ldi	r19, 0x9C	; 156
     1cc:	30 93 27 01 	sts	0x0127, r19	; 0x800127 <__TEXT_REGION_LENGTH__+0x700127>
     1d0:	20 93 26 01 	sts	0x0126, r18	; 0x800126 <__TEXT_REGION_LENGTH__+0x700126>

000001d4 <.Loc.97>:

    TCCR5A = (1 << WGM51) | (0 << WGM50) | (1 << COM5A1) | (0 << COM5A0);
     1d4:	92 e8       	ldi	r25, 0x82	; 130
     1d6:	90 93 20 01 	sts	0x0120, r25	; 0x800120 <__TEXT_REGION_LENGTH__+0x700120>

000001da <.Loc.100>:
    TCCR5B = (1 << WGM53) | (1 << WGM52) | (0 << CS52) | (1 << CS51) | (0 << CS50);
     1da:	8a e1       	ldi	r24, 0x1A	; 26
     1dc:	80 93 21 01 	sts	0x0121, r24	; 0x800121 <__TEXT_REGION_LENGTH__+0x700121>

000001e0 <.Loc.101>:

    ICR4 = TOP_VALUE;
     1e0:	30 93 a7 00 	sts	0x00A7, r19	; 0x8000a7 <__TEXT_REGION_LENGTH__+0x7000a7>
     1e4:	20 93 a6 00 	sts	0x00A6, r18	; 0x8000a6 <__TEXT_REGION_LENGTH__+0x7000a6>

000001e8 <.Loc.103>:

    TCCR4A = (1 << WGM41) | (0 << WGM40) | (1 << COM4A1) | (0 << COM4A0);
     1e8:	90 93 a0 00 	sts	0x00A0, r25	; 0x8000a0 <__TEXT_REGION_LENGTH__+0x7000a0>

000001ec <.Loc.105>:
    TCCR4B = (1 << WGM43) | (1 << WGM42) | (0 << CS42) | (1 << CS41) | (0 << CS40);
     1ec:	80 93 a1 00 	sts	0x00A1, r24	; 0x8000a1 <__TEXT_REGION_LENGTH__+0x7000a1>

000001f0 <.Loc.107>:
}
     1f0:	08 95       	ret

000001f2 <init_test>:

void init_test(void)
{
    // Display pinnen als output
    DDRH |= (1 << SDI_BIT) | (1 << SFTCLK_BIT);
     1f2:	e1 e0       	ldi	r30, 0x01	; 1
     1f4:	f1 e0       	ldi	r31, 0x01	; 1
     1f6:	80 81       	ld	r24, Z

000001f8 <.Loc.110>:
     1f8:	80 63       	ori	r24, 0x30	; 48
     1fa:	80 83       	st	Z, r24

000001fc <.Loc.111>:
    DDRG |= (1 << LCHCLK_BIT);
     1fc:	9d 9a       	sbi	0x13, 5	; 19

000001fe <.Loc.113>:

    // Timers en poorten resetten
    PORTG &= ~(1 << LCHCLK_BIT);
     1fe:	a5 98       	cbi	0x14, 5	; 20

00000200 <.Loc.115>:
}
     200:	08 95       	ret

00000202 <init_timer>:

void init_timer(void) // timer 0.1 sec
{
    TCNT2 = RESET_VALUE_TIMER1;
     202:	86 e9       	ldi	r24, 0x96	; 150
     204:	80 93 b2 00 	sts	0x00B2, r24	; 0x8000b2 <__TEXT_REGION_LENGTH__+0x7000b2>

00000208 <.Loc.119>:
    TCCR2A = 0;
     208:	10 92 b0 00 	sts	0x00B0, r1	; 0x8000b0 <__TEXT_REGION_LENGTH__+0x7000b0>

0000020c <.Loc.121>:
    TCCR2B = (1 << CS12)|(0 << CS11)|(0 << CS10);
     20c:	84 e0       	ldi	r24, 0x04	; 4
     20e:	80 93 b1 00 	sts	0x00B1, r24	; 0x8000b1 <__TEXT_REGION_LENGTH__+0x7000b1>

00000212 <.Loc.123>:
}
     212:	08 95       	ret

00000214 <init_function>:

void init_function(void)
{
    init_ultrasoon_sensor();
     214:	0e 94 95 00 	call	0x12a	; 0x12a <init_ultrasoon_sensor>

00000218 <.LVL0>:
    init_infrarood_sensor();
     218:	0e 94 9c 00 	call	0x138	; 0x138 <init_infrarood_sensor>

0000021c <.LVL1>:
    init_knopjes();
     21c:	0e 94 a1 00 	call	0x142	; 0x142 <init_knopjes>

00000220 <.LVL2>:
    init_led();
     220:	0e 94 ae 00 	call	0x15c	; 0x15c <init_led>

00000224 <.LVL3>:
    init_h_brug_dual();
     224:	0e 94 b5 00 	call	0x16a	; 0x16a <init_h_brug_dual>

00000228 <.LVL4>:
    init_noodstop();
     228:	0e 94 e2 00 	call	0x1c4	; 0x1c4 <init_noodstop>

0000022c <.LVL5>:
    init_timer_PWM();
     22c:	0e 94 e4 00 	call	0x1c8	; 0x1c8 <init_timer_PWM>

00000230 <.LVL6>:
    init_timer();
     230:	0e 94 01 01 	call	0x202	; 0x202 <init_timer>

00000234 <.LVL7>:
    init_test();
     234:	0e 94 f9 00 	call	0x1f2	; 0x1f2 <init_test>

00000238 <.LVL8>:
}
     238:	08 95       	ret

0000023a <main>:



int main(void)
{
    init_function();
     23a:	0e 94 0a 01 	call	0x214	; 0x214 <init_function>

0000023e <.LVL0>:


    padNavigeren(RECHTS);
     23e:	80 e0       	ldi	r24, 0x00	; 0
     240:	90 e0       	ldi	r25, 0x00	; 0
     242:	0e 94 2d 04 	call	0x85a	; 0x85a <padNavigeren>

00000246 <.L2>:
            }
        }*/

    while(1)
    {
        print_turd();
     246:	0e 94 88 07 	call	0xf10	; 0xf10 <print_turd>

0000024a <.LVL2>:
    while(1)
     24a:	fd cf       	rjmp	.-6      	; 0x246 <.L2>

0000024c <OPSLAG>:
                //LED_2_PORT |= (1 << LED_2);
                TIFR1 = (1 << TOV1);
            }
        }
    }*/
}
     24c:	08 95       	ret

0000024e <__vector_2>:
};

// === INTERRUPTS: ALLES GEBEUREN HIER! ===
ISR(INT1_vect) { // Links AGV (pin 20)
    ///block_detectie(); niet
}
     24e:	18 95       	reti

00000250 <__vector_3>:

ISR(INT2_vect) { // Rechts AGV (pin 19)
    ///block_detectie(); niet
}
     250:	18 95       	reti

00000252 <millis>:
    block_detectie(pakketDetectie(READ_MODE,0));
}
int millis(void)
{
    return 0;
}
     252:	80 e0       	ldi	r24, 0x00	; 0
     254:	90 e0       	ldi	r25, 0x00	; 0
     256:	08 95       	ret

00000258 <update_7seg_display>:
    //int honderden = (waarde / 100) % 10;
    //int duizenden = (waarde / 1000) % 10;

    // TODO: Pas aan je specifieke 7-seg driver (TM1637?)
    // Voorbeeld voor directe PORTG bediening:
    PORTG = (_BV(PG0) | _BV(PG1)); // Clock/DIO high (vereenvoudigd)
     258:	83 e0       	ldi	r24, 0x03	; 3

0000025a <.Loc.10>:
     25a:	84 bb       	out	0x14, r24	; 20

0000025c <.Loc.11>:
    // Implementeer je display protocol hier
}
     25c:	08 95       	ret

0000025e <blauw_led_aan>:

// === LED FUNCTIES ===
void blauw_led_aan(void) {
    PORTB |= _BV(PB2);   // Pin 51
     25e:	2a 9a       	sbi	0x05, 2	; 5

00000260 <.Loc.15>:
}
     260:	08 95       	ret

00000262 <blauw_led_uit>:

void blauw_led_uit(void) {
    PORTB &= ~_BV(PB2);  // Pin 51
     262:	2a 98       	cbi	0x05, 2	; 5

00000264 <.Loc.19>:
}
     264:	08 95       	ret

00000266 <motoren_stop>:

// === MOTOR FUNCTIES ===
void motoren_stop(void) {
    motor_R(0.0);
     266:	60 e0       	ldi	r22, 0x00	; 0
     268:	70 e0       	ldi	r23, 0x00	; 0
     26a:	cb 01       	movw	r24, r22
     26c:	0e 94 d9 02 	call	0x5b2	; 0x5b2 <motor_R>

00000270 <.LVL2>:
    motor_L(0.0);
     270:	60 e0       	ldi	r22, 0x00	; 0
     272:	70 e0       	ldi	r23, 0x00	; 0
     274:	cb 01       	movw	r24, r22
     276:	0e 94 09 03 	call	0x612	; 0x612 <motor_L>

0000027a <.LVL3>:
}
     27a:	08 95       	ret

0000027c <motoren_start>:

void motoren_start(void) {
    motor_R(1);
     27c:	60 e0       	ldi	r22, 0x00	; 0
     27e:	70 e0       	ldi	r23, 0x00	; 0
     280:	80 e8       	ldi	r24, 0x80	; 128
     282:	9f e3       	ldi	r25, 0x3F	; 63
     284:	0e 94 d9 02 	call	0x5b2	; 0x5b2 <motor_R>

00000288 <.LVL4>:
    motor_L(1);
     288:	60 e0       	ldi	r22, 0x00	; 0
     28a:	70 e0       	ldi	r23, 0x00	; 0
     28c:	80 e8       	ldi	r24, 0x80	; 128
     28e:	9f e3       	ldi	r25, 0x3F	; 63
     290:	0e 94 09 03 	call	0x612	; 0x612 <motor_L>

00000294 <.LVL5>:
}
     294:	08 95       	ret

00000296 <update_led_knipper>:

// === KNIPPER FUNCTIE ===
void update_led_knipper(void) {
    unsigned long nu = millis();
    if (nu - laatste_blink_tijd >= BLINK_INTERVAL) {
     296:	80 91 14 02 	lds	r24, 0x0214	; 0x800214 <laatste_blink_tijd>
     29a:	90 91 15 02 	lds	r25, 0x0215	; 0x800215 <laatste_blink_tijd+0x1>
     29e:	a0 91 16 02 	lds	r26, 0x0216	; 0x800216 <laatste_blink_tijd+0x2>
     2a2:	b0 91 17 02 	lds	r27, 0x0217	; 0x800217 <laatste_blink_tijd+0x3>
     2a6:	b0 95       	com	r27
     2a8:	a0 95       	com	r26
     2aa:	90 95       	com	r25
     2ac:	81 95       	neg	r24
     2ae:	9f 4f       	sbci	r25, 0xFF	; 255
     2b0:	af 4f       	sbci	r26, 0xFF	; 255
     2b2:	bf 4f       	sbci	r27, 0xFF	; 255

000002b4 <.Loc.32>:
     2b4:	84 3f       	cpi	r24, 0xF4	; 244
     2b6:	91 40       	sbci	r25, 0x01	; 1
     2b8:	a1 05       	cpc	r26, r1
     2ba:	b1 05       	cpc	r27, r1
     2bc:	b0 f0       	brcs	.+44     	; 0x2ea <.L9>

000002be <.Loc.33>:
        if (led_knipper_state == 0) {
     2be:	80 91 18 02 	lds	r24, 0x0218	; 0x800218 <led_knipper_state>
     2c2:	90 91 19 02 	lds	r25, 0x0219	; 0x800219 <led_knipper_state+0x1>

000002c6 <.Loc.35>:
     2c6:	89 2b       	or	r24, r25
     2c8:	89 f4       	brne	.+34     	; 0x2ec <.L11>

000002ca <.Loc.36>:
            blauw_led_aan();
     2ca:	0e 94 2f 01 	call	0x25e	; 0x25e <blauw_led_aan>

000002ce <.LVL7>:
            led_knipper_state = 1;
     2ce:	81 e0       	ldi	r24, 0x01	; 1
     2d0:	90 e0       	ldi	r25, 0x00	; 0
     2d2:	90 93 19 02 	sts	0x0219, r25	; 0x800219 <led_knipper_state+0x1>
     2d6:	80 93 18 02 	sts	0x0218, r24	; 0x800218 <led_knipper_state>

000002da <.L12>:
        } else {
            blauw_led_uit();
            led_knipper_state = 0;
        }
        laatste_blink_tijd = nu;
     2da:	10 92 14 02 	sts	0x0214, r1	; 0x800214 <laatste_blink_tijd>
     2de:	10 92 15 02 	sts	0x0215, r1	; 0x800215 <laatste_blink_tijd+0x1>
     2e2:	10 92 16 02 	sts	0x0216, r1	; 0x800216 <laatste_blink_tijd+0x2>
     2e6:	10 92 17 02 	sts	0x0217, r1	; 0x800217 <laatste_blink_tijd+0x3>

000002ea <.L9>:
    }
}
     2ea:	08 95       	ret

000002ec <.L11>:
            blauw_led_uit();
     2ec:	0e 94 31 01 	call	0x262	; 0x262 <blauw_led_uit>

000002f0 <.LVL8>:
            led_knipper_state = 0;
     2f0:	10 92 19 02 	sts	0x0219, r1	; 0x800219 <led_knipper_state+0x1>
     2f4:	10 92 18 02 	sts	0x0218, r1	; 0x800218 <led_knipper_state>
     2f8:	f0 cf       	rjmp	.-32     	; 0x2da <.L12>

000002fa <setup_module>:

// === INITIALISATIE ===
void setup_module(void) {
    // Configureer pins
    DDRA |= _BV(PA0)|_BV(PA1)|_BV(PA2)|_BV(PA3)|_BV(PA4)|_BV(PA5); // Knoppen INPUT
     2fa:	81 b1       	in	r24, 0x01	; 1

000002fc <.Loc.47>:
     2fc:	8f 63       	ori	r24, 0x3F	; 63
     2fe:	81 b9       	out	0x01, r24	; 1

00000300 <.Loc.48>:
    DDRB |= _BV(PB2)|_BV(PB1);      // LEDs OUTPUT
     300:	84 b1       	in	r24, 0x04	; 4

00000302 <.Loc.49>:
     302:	86 60       	ori	r24, 0x06	; 6
     304:	84 b9       	out	0x04, r24	; 4

00000306 <.Loc.50>:
    DDRG |= _BV(PG0)|_BV(PG1);      // 7-seg OUTPUT
     306:	83 b3       	in	r24, 0x13	; 19

00000308 <.Loc.51>:
     308:	83 60       	ori	r24, 0x03	; 3
     30a:	83 bb       	out	0x13, r24	; 19

0000030c <.Loc.52>:

    // Interrupt config (falling edge voor IR sensoren)
    EICRA |= _BV(ISC11)|_BV(ISC10)|_BV(ISC21)|_BV(ISC20); // INT1+INT2
     30c:	e9 e6       	ldi	r30, 0x69	; 105
     30e:	f0 e0       	ldi	r31, 0x00	; 0
     310:	80 81       	ld	r24, Z

00000312 <.Loc.53>:
     312:	8c 63       	ori	r24, 0x3C	; 60
     314:	80 83       	st	Z, r24

00000316 <.Loc.54>:
    EICRB |= _BV(ISC41)|_BV(ISC40)|_BV(ISC51)|_BV(ISC50); // INT4+INT5
     316:	ea e6       	ldi	r30, 0x6A	; 106
     318:	f0 e0       	ldi	r31, 0x00	; 0
     31a:	80 81       	ld	r24, Z

0000031c <.Loc.55>:
     31c:	8f 60       	ori	r24, 0x0F	; 15
     31e:	80 83       	st	Z, r24

00000320 <.Loc.56>:
    EIMSK |= _BV(INT1)|_BV(INT2)|_BV(INT4)|_BV(INT5);
     320:	8d b3       	in	r24, 0x1d	; 29

00000322 <.Loc.57>:
     322:	86 63       	ori	r24, 0x36	; 54
     324:	8d bb       	out	0x1d, r24	; 29

00000326 <.Loc.58>:

    // Start condities
    blauw_led_uit();
     326:	0e 94 31 01 	call	0x262	; 0x262 <blauw_led_uit>

0000032a <.LVL9>:

    sei(); // Global interrupts AAN
     32a:	78 94       	sei

0000032c <.Loc.60>:
}
     32c:	08 95       	ret

0000032e <loop>:

// === MAIN LOOP (ALLEEN TIMERS) ===
void loop(void) {
    // 1. Stop timer (2 seconden)
    if (in_stop && !opdracht_voltooid) {
     32e:	80 91 22 02 	lds	r24, 0x0222	; 0x800222 <in_stop>
     332:	90 91 23 02 	lds	r25, 0x0223	; 0x800223 <in_stop+0x1>

00000336 <.Loc.64>:
     336:	89 2b       	or	r24, r25
     338:	d1 f0       	breq	.+52     	; 0x36e <.L15>

0000033a <.Loc.65>:
     33a:	80 91 20 02 	lds	r24, 0x0220	; 0x800220 <opdracht_voltooid>
     33e:	90 91 21 02 	lds	r25, 0x0221	; 0x800221 <opdracht_voltooid+0x1>

00000342 <.Loc.66>:
     342:	89 2b       	or	r24, r25
     344:	a1 f4       	brne	.+40     	; 0x36e <.L15>

00000346 <.Loc.67>:
        if (millis() - stop_start_tijd >= STOP_TIME) {
     346:	80 91 24 02 	lds	r24, 0x0224	; 0x800224 <stop_start_tijd>
     34a:	90 91 25 02 	lds	r25, 0x0225	; 0x800225 <stop_start_tijd+0x1>
     34e:	a0 91 26 02 	lds	r26, 0x0226	; 0x800226 <stop_start_tijd+0x2>
     352:	b0 91 27 02 	lds	r27, 0x0227	; 0x800227 <stop_start_tijd+0x3>
     356:	b0 95       	com	r27
     358:	a0 95       	com	r26
     35a:	90 95       	com	r25
     35c:	81 95       	neg	r24
     35e:	9f 4f       	sbci	r25, 0xFF	; 255
     360:	af 4f       	sbci	r26, 0xFF	; 255
     362:	bf 4f       	sbci	r27, 0xFF	; 255

00000364 <.Loc.69>:
     364:	80 3d       	cpi	r24, 0xD0	; 208
     366:	97 40       	sbci	r25, 0x07	; 7
     368:	a1 05       	cpc	r26, r1
     36a:	b1 05       	cpc	r27, r1
     36c:	38 f4       	brcc	.+14     	; 0x37c <.L17>

0000036e <.L15>:
            motoren_start();
        }
    }

    // 2. Opdracht voltooid: knipper LED
    if (opdracht_voltooid) {
     36e:	80 91 20 02 	lds	r24, 0x0220	; 0x800220 <opdracht_voltooid>
     372:	90 91 21 02 	lds	r25, 0x0221	; 0x800221 <opdracht_voltooid+0x1>

00000376 <.Loc.72>:
     376:	89 2b       	or	r24, r25
     378:	51 f4       	brne	.+20     	; 0x38e <.L18>

0000037a <.L14>:
    }

    // 3. Bocht modus extern aansturen (bijv. vanuit navigatie)
    // bocht_modus = 1;  // Tijdens bocht
    // bocht_modus = 0;  // Na bocht
}
     37a:	08 95       	ret

0000037c <.L17>:
            in_stop = 0;
     37c:	10 92 23 02 	sts	0x0223, r1	; 0x800223 <in_stop+0x1>
     380:	10 92 22 02 	sts	0x0222, r1	; 0x800222 <in_stop>

00000384 <.Loc.76>:
            blauw_led_uit();
     384:	0e 94 31 01 	call	0x262	; 0x262 <blauw_led_uit>

00000388 <.LVL10>:
            motoren_start();
     388:	0e 94 3e 01 	call	0x27c	; 0x27c <motoren_start>

0000038c <.LVL11>:
     38c:	f0 cf       	rjmp	.-32     	; 0x36e <.L15>

0000038e <.L18>:
        update_led_knipper();
     38e:	0e 94 4b 01 	call	0x296	; 0x296 <update_led_knipper>

00000392 <.LVL12>:
}
     392:	f3 cf       	rjmp	.-26     	; 0x37a <.L14>

00000394 <pakketDetectie>:

/// TOEGEVOEGD ///
int pakketDetectie(int mode, int opdracht)
{
     394:	28 2f       	mov	r18, r24
     396:	39 2f       	mov	r19, r25

00000398 <.Loc.82>:
    static int detectie = FALSE;
    static int aantal = 0;
    switch(mode)
     398:	22 30       	cpi	r18, 0x02	; 2
     39a:	31 05       	cpc	r19, r1
     39c:	b1 f0       	breq	.+44     	; 0x3ca <.L20>
     39e:	23 30       	cpi	r18, 0x03	; 3
     3a0:	31 05       	cpc	r19, r1
     3a2:	c1 f0       	breq	.+48     	; 0x3d4 <.L21>
     3a4:	21 30       	cpi	r18, 0x01	; 1
     3a6:	31 05       	cpc	r19, r1
     3a8:	19 f0       	breq	.+6      	; 0x3b0 <.L24>
     3aa:	80 e0       	ldi	r24, 0x00	; 0
     3ac:	90 e0       	ldi	r25, 0x00	; 0

000003ae <.Loc.85>:
            return aantal;
            break;
        }
    }
    return FALSE;
}
     3ae:	08 95       	ret

000003b0 <.L24>:
            detectie = TRUE;
     3b0:	81 e0       	ldi	r24, 0x01	; 1
     3b2:	90 e0       	ldi	r25, 0x00	; 0

000003b4 <.Loc.88>:
     3b4:	90 93 2d 02 	sts	0x022D, r25	; 0x80022d <detectie.1+0x1>
     3b8:	80 93 2c 02 	sts	0x022C, r24	; 0x80022c <detectie.1>

000003bc <.Loc.89>:
            aantal = opdracht;
     3bc:	60 93 2a 02 	sts	0x022A, r22	; 0x80022a <aantal.0>
     3c0:	70 93 2b 02 	sts	0x022B, r23	; 0x80022b <aantal.0+0x1>

000003c4 <.Loc.91>:
            return 0;
     3c4:	80 e0       	ldi	r24, 0x00	; 0
     3c6:	90 e0       	ldi	r25, 0x00	; 0
     3c8:	08 95       	ret

000003ca <.L20>:
            return detectie;
     3ca:	80 91 2c 02 	lds	r24, 0x022C	; 0x80022c <detectie.1>
     3ce:	90 91 2d 02 	lds	r25, 0x022D	; 0x80022d <detectie.1+0x1>

000003d2 <.Loc.95>:
     3d2:	08 95       	ret

000003d4 <.L21>:
            return aantal;
     3d4:	80 91 2a 02 	lds	r24, 0x022A	; 0x80022a <aantal.0>
     3d8:	90 91 2b 02 	lds	r25, 0x022B	; 0x80022b <aantal.0+0x1>

000003dc <.Loc.99>:
     3dc:	08 95       	ret

000003de <wachten>:

void wachten(int num, int factor)
{
     3de:	bf 92       	push	r11
     3e0:	cf 92       	push	r12
     3e2:	df 92       	push	r13
     3e4:	ef 92       	push	r14
     3e6:	ff 92       	push	r15
     3e8:	0f 93       	push	r16
     3ea:	1f 93       	push	r17
     3ec:	cf 93       	push	r28
     3ee:	df 93       	push	r29
     3f0:	e8 2e       	mov	r14, r24
     3f2:	f9 2e       	mov	r15, r25

000003f4 <.Loc.102>:
    int timerReset = 65536UL - (62500UL/factor);
     3f4:	9b 01       	movw	r18, r22
     3f6:	77 0f       	add	r23, r23
     3f8:	44 0b       	sbc	r20, r20
     3fa:	55 0b       	sbc	r21, r21
     3fc:	64 e2       	ldi	r22, 0x24	; 36
     3fe:	74 ef       	ldi	r23, 0xF4	; 244
     400:	80 e0       	ldi	r24, 0x00	; 0
     402:	90 e0       	ldi	r25, 0x00	; 0

00000404 <.Loc.104>:
     404:	0e 94 b5 07 	call	0xf6a	; 0xf6a <__udivmodsi4>

00000408 <.Loc.105>:
     408:	00 27       	eor	r16, r16
     40a:	11 27       	eor	r17, r17
     40c:	02 1b       	sub	r16, r18
     40e:	13 0b       	sbc	r17, r19

00000410 <.Loc.106>:
    int wacht = 1;
    int count = 0;
    TCNT1 = timerReset;
     410:	10 93 85 00 	sts	0x0085, r17	; 0x800085 <__TEXT_REGION_LENGTH__+0x700085>
     414:	00 93 84 00 	sts	0x0084, r16	; 0x800084 <__TEXT_REGION_LENGTH__+0x700084>

00000418 <.Loc.110>:
    int count = 0;
     418:	c0 e0       	ldi	r28, 0x00	; 0
     41a:	d0 e0       	ldi	r29, 0x00	; 0

0000041c <.Loc.113>:
        {
            if (++count >= num)
            {
                wacht = 0;
            }
            TIFR1 = (1 << TOV1);
     41c:	bb 24       	eor	r11, r11
     41e:	b3 94       	inc	r11

00000420 <.Loc.114>:
            TCNT1 = timerReset;
     420:	0f 2e       	mov	r0, r31
     422:	f4 e8       	ldi	r31, 0x84	; 132
     424:	cf 2e       	mov	r12, r31
     426:	d1 2c       	mov	r13, r1
     428:	f0 2d       	mov	r31, r0
     42a:	02 c0       	rjmp	.+4      	; 0x430 <.L28>

0000042c <.L26>:
        }
        motoren_stop();
     42c:	0e 94 33 01 	call	0x266	; 0x266 <motoren_stop>

00000430 <.L28>:
        if (TIFR1 & (1 << TOV1))
     430:	b0 9b       	sbis	0x16, 0	; 22
     432:	fc cf       	rjmp	.-8      	; 0x42c <.L26>

00000434 <.Loc.119>:
            if (++count >= num)
     434:	21 96       	adiw	r28, 0x01	; 1

00000436 <.Loc.121>:
            TIFR1 = (1 << TOV1);
     436:	b6 ba       	out	0x16, r11	; 22

00000438 <.Loc.123>:
            TCNT1 = timerReset;
     438:	f6 01       	movw	r30, r12
     43a:	11 83       	std	Z+1, r17	; 0x01
     43c:	00 83       	st	Z, r16

0000043e <.Loc.125>:
        motoren_stop();
     43e:	0e 94 33 01 	call	0x266	; 0x266 <motoren_stop>

00000442 <.LVL28>:
    while (wacht)
     442:	ce 15       	cp	r28, r14
     444:	df 05       	cpc	r29, r15
     446:	a4 f3       	brlt	.-24     	; 0x430 <.L28>

00000448 <.Loc.127>:
    }
}
     448:	df 91       	pop	r29
     44a:	cf 91       	pop	r28

0000044c <.Loc.128>:
     44c:	1f 91       	pop	r17
     44e:	0f 91       	pop	r16

00000450 <.Loc.129>:
     450:	ff 90       	pop	r15
     452:	ef 90       	pop	r14
     454:	df 90       	pop	r13
     456:	cf 90       	pop	r12
     458:	bf 90       	pop	r11
     45a:	08 95       	ret

0000045c <block_detectie>:
    if (modus == TRUE)
     45c:	01 97       	sbiw	r24, 0x01	; 1
     45e:	09 f0       	breq	.+2      	; 0x462 <.L32>

00000460 <.L30>:
}
     460:	08 95       	ret

00000462 <.L32>:
        if (!in_stop && !bocht_modus && !opdracht_voltooid) {
     462:	80 91 22 02 	lds	r24, 0x0222	; 0x800222 <in_stop>
     466:	90 91 23 02 	lds	r25, 0x0223	; 0x800223 <in_stop+0x1>

0000046a <.Loc.136>:
     46a:	89 2b       	or	r24, r25
     46c:	c9 f7       	brne	.-14     	; 0x460 <.L30>

0000046e <.Loc.137>:
     46e:	80 91 1a 02 	lds	r24, 0x021A	; 0x80021a <bocht_modus>
     472:	90 91 1b 02 	lds	r25, 0x021B	; 0x80021b <bocht_modus+0x1>

00000476 <.Loc.138>:
     476:	89 2b       	or	r24, r25
     478:	99 f7       	brne	.-26     	; 0x460 <.L30>

0000047a <.Loc.139>:
     47a:	80 91 20 02 	lds	r24, 0x0220	; 0x800220 <opdracht_voltooid>
     47e:	90 91 21 02 	lds	r25, 0x0221	; 0x800221 <opdracht_voltooid+0x1>

00000482 <.Loc.140>:
     482:	89 2b       	or	r24, r25
     484:	69 f7       	brne	.-38     	; 0x460 <.L30>

00000486 <.LBB11>:
            if (nu - laatste_blok_tijd > DEBOUNCE_TIME) {
     486:	80 91 1c 02 	lds	r24, 0x021C	; 0x80021c <laatste_blok_tijd>
     48a:	90 91 1d 02 	lds	r25, 0x021D	; 0x80021d <laatste_blok_tijd+0x1>
     48e:	a0 91 1e 02 	lds	r26, 0x021E	; 0x80021e <laatste_blok_tijd+0x2>
     492:	b0 91 1f 02 	lds	r27, 0x021F	; 0x80021f <laatste_blok_tijd+0x3>
     496:	b0 95       	com	r27
     498:	a0 95       	com	r26
     49a:	90 95       	com	r25
     49c:	81 95       	neg	r24
     49e:	9f 4f       	sbci	r25, 0xFF	; 255
     4a0:	af 4f       	sbci	r26, 0xFF	; 255
     4a2:	bf 4f       	sbci	r27, 0xFF	; 255

000004a4 <.Loc.144>:
     4a4:	c3 97       	sbiw	r24, 0x33	; 51
     4a6:	a1 05       	cpc	r26, r1
     4a8:	b1 05       	cpc	r27, r1
     4aa:	d0 f2       	brcs	.-76     	; 0x460 <.L30>

000004ac <.Loc.145>:
                blokjes_teller++;                    // 1. Teller ++
     4ac:	80 91 28 02 	lds	r24, 0x0228	; 0x800228 <blokjes_teller>
     4b0:	90 91 29 02 	lds	r25, 0x0229	; 0x800229 <blokjes_teller+0x1>
     4b4:	01 96       	adiw	r24, 0x01	; 1
     4b6:	90 93 29 02 	sts	0x0229, r25	; 0x800229 <blokjes_teller+0x1>
     4ba:	80 93 28 02 	sts	0x0228, r24	; 0x800228 <blokjes_teller>

000004be <.Loc.147>:
                motoren_stop();                      // 2. Motoren STOP
     4be:	0e 94 33 01 	call	0x266	; 0x266 <motoren_stop>

000004c2 <.LVL36>:
                PORTB |= _BV(PB2);                   // 3. Blauw LED aan (pin 51)
     4c2:	2a 9a       	sbi	0x05, 2	; 5

000004c4 <.Loc.150>:
                print_waarde(blokjes_teller);
     4c4:	80 91 28 02 	lds	r24, 0x0228	; 0x800228 <blokjes_teller>
     4c8:	90 91 29 02 	lds	r25, 0x0229	; 0x800229 <blokjes_teller+0x1>
     4cc:	0e 94 cf 06 	call	0xd9e	; 0xd9e <print_waarde>

000004d0 <.LVL37>:
                wachten(2, SEC);
     4d0:	61 e0       	ldi	r22, 0x01	; 1
     4d2:	70 e0       	ldi	r23, 0x00	; 0
     4d4:	82 e0       	ldi	r24, 0x02	; 2
     4d6:	90 e0       	ldi	r25, 0x00	; 0
     4d8:	0e 94 ef 01 	call	0x3de	; 0x3de <wachten>

000004dc <.LBB12>:
                if (blokjes_teller >= pakketDetectie(READ_OPDRACHT,0)) {
     4dc:	20 91 28 02 	lds	r18, 0x0228	; 0x800228 <blokjes_teller>
     4e0:	30 91 29 02 	lds	r19, 0x0229	; 0x800229 <blokjes_teller+0x1>

000004e4 <.Loc.161>:
     4e4:	80 91 2a 02 	lds	r24, 0x022A	; 0x80022a <aantal.0>
     4e8:	90 91 2b 02 	lds	r25, 0x022B	; 0x80022b <aantal.0+0x1>
     4ec:	28 17       	cp	r18, r24
     4ee:	39 07       	cpc	r19, r25
     4f0:	0c f4       	brge	.+2      	; 0x4f4 <.Loc.162>

000004f2 <L0^A>:
     4f2:	b6 cf       	rjmp	.-148    	; 0x460 <.L30>

000004f4 <.Loc.162>:
                    opdracht_voltooid = 1;
     4f4:	81 e0       	ldi	r24, 0x01	; 1
     4f6:	90 e0       	ldi	r25, 0x00	; 0
     4f8:	90 93 21 02 	sts	0x0221, r25	; 0x800221 <opdracht_voltooid+0x1>
     4fc:	80 93 20 02 	sts	0x0220, r24	; 0x800220 <opdracht_voltooid>

00000500 <.LBE11>:
}
     500:	af cf       	rjmp	.-162    	; 0x460 <.L30>

00000502 <__vector_5>:
ISR(INT4_vect) { // Links module (pin 2)
     502:	1f 92       	push	r1
     504:	0f 92       	push	r0
     506:	0f b6       	in	r0, 0x3f	; 63
     508:	0f 92       	push	r0
     50a:	11 24       	eor	r1, r1
     50c:	0b b6       	in	r0, 0x3b	; 59
     50e:	0f 92       	push	r0
     510:	2f 93       	push	r18
     512:	3f 93       	push	r19
     514:	4f 93       	push	r20
     516:	5f 93       	push	r21
     518:	6f 93       	push	r22
     51a:	7f 93       	push	r23
     51c:	8f 93       	push	r24
     51e:	9f 93       	push	r25
     520:	af 93       	push	r26
     522:	bf 93       	push	r27
     524:	ef 93       	push	r30
     526:	ff 93       	push	r31

00000528 <.LBB16>:
    block_detectie(pakketDetectie(READ_MODE,0));
     528:	80 91 2c 02 	lds	r24, 0x022C	; 0x80022c <detectie.1>
     52c:	90 91 2d 02 	lds	r25, 0x022D	; 0x80022d <detectie.1+0x1>
     530:	0e 94 2e 02 	call	0x45c	; 0x45c <block_detectie>

00000534 <.LVL40>:
}
     534:	ff 91       	pop	r31
     536:	ef 91       	pop	r30
     538:	bf 91       	pop	r27
     53a:	af 91       	pop	r26
     53c:	9f 91       	pop	r25
     53e:	8f 91       	pop	r24
     540:	7f 91       	pop	r23
     542:	6f 91       	pop	r22
     544:	5f 91       	pop	r21
     546:	4f 91       	pop	r20
     548:	3f 91       	pop	r19
     54a:	2f 91       	pop	r18
     54c:	0f 90       	pop	r0
     54e:	0b be       	out	0x3b, r0	; 59
     550:	0f 90       	pop	r0
     552:	0f be       	out	0x3f, r0	; 63
     554:	0f 90       	pop	r0
     556:	1f 90       	pop	r1
     558:	18 95       	reti

0000055a <__vector_6>:
ISR(INT5_vect) { // Rechts module (pin 3)
     55a:	1f 92       	push	r1
     55c:	0f 92       	push	r0
     55e:	0f b6       	in	r0, 0x3f	; 63
     560:	0f 92       	push	r0
     562:	11 24       	eor	r1, r1
     564:	0b b6       	in	r0, 0x3b	; 59
     566:	0f 92       	push	r0
     568:	2f 93       	push	r18
     56a:	3f 93       	push	r19
     56c:	4f 93       	push	r20
     56e:	5f 93       	push	r21
     570:	6f 93       	push	r22
     572:	7f 93       	push	r23
     574:	8f 93       	push	r24
     576:	9f 93       	push	r25
     578:	af 93       	push	r26
     57a:	bf 93       	push	r27
     57c:	ef 93       	push	r30
     57e:	ff 93       	push	r31

00000580 <.LBB20>:
    block_detectie(pakketDetectie(READ_MODE,0));
     580:	80 91 2c 02 	lds	r24, 0x022C	; 0x80022c <detectie.1>
     584:	90 91 2d 02 	lds	r25, 0x022D	; 0x80022d <detectie.1+0x1>
     588:	0e 94 2e 02 	call	0x45c	; 0x45c <block_detectie>

0000058c <.LVL42>:
}
     58c:	ff 91       	pop	r31
     58e:	ef 91       	pop	r30
     590:	bf 91       	pop	r27
     592:	af 91       	pop	r26
     594:	9f 91       	pop	r25
     596:	8f 91       	pop	r24
     598:	7f 91       	pop	r23
     59a:	6f 91       	pop	r22
     59c:	5f 91       	pop	r21
     59e:	4f 91       	pop	r20
     5a0:	3f 91       	pop	r19
     5a2:	2f 91       	pop	r18
     5a4:	0f 90       	pop	r0
     5a6:	0b be       	out	0x3b, r0	; 59
     5a8:	0f 90       	pop	r0
     5aa:	0f be       	out	0x3f, r0	; 63
     5ac:	0f 90       	pop	r0
     5ae:	1f 90       	pop	r1
     5b0:	18 95       	reti

000005b2 <motor_R>:
#include "navigatie_lib.h"
#include "motor_lib.h"
#include "module.h"

void motor_R(float factor)
{
     5b2:	cf 93       	push	r28
     5b4:	df 93       	push	r29
     5b6:	00 d0       	rcall	.+0      	; 0x5b8 <L0^A>

000005b8 <L0^A>:
     5b8:	0f 92       	push	r0
     5ba:	cd b7       	in	r28, 0x3d	; 61
     5bc:	de b7       	in	r29, 0x3e	; 62

000005be <.Loc.2>:
    int motor_PWM_R = PWM * factor;
     5be:	20 e0       	ldi	r18, 0x00	; 0
     5c0:	30 e4       	ldi	r19, 0x40	; 64
     5c2:	4c e9       	ldi	r20, 0x9C	; 156
     5c4:	56 e4       	ldi	r21, 0x46	; 70
     5c6:	69 83       	std	Y+1, r22	; 0x01
     5c8:	7a 83       	std	Y+2, r23	; 0x02
     5ca:	8b 83       	std	Y+3, r24	; 0x03
     5cc:	9c 83       	std	Y+4, r25	; 0x04
     5ce:	69 81       	ldd	r22, Y+1	; 0x01
     5d0:	7a 81       	ldd	r23, Y+2	; 0x02
     5d2:	8b 81       	ldd	r24, Y+3	; 0x03
     5d4:	9c 81       	ldd	r25, Y+4	; 0x04

000005d6 <.Loc.4>:
     5d6:	0e 94 89 09 	call	0x1312	; 0x1312 <__mulsf3>

000005da <.LVL2>:
     5da:	69 83       	std	Y+1, r22	; 0x01
     5dc:	7a 83       	std	Y+2, r23	; 0x02
     5de:	8b 83       	std	Y+3, r24	; 0x03
     5e0:	9c 83       	std	Y+4, r25	; 0x04
     5e2:	69 81       	ldd	r22, Y+1	; 0x01
     5e4:	7a 81       	ldd	r23, Y+2	; 0x02
     5e6:	8b 81       	ldd	r24, Y+3	; 0x03
     5e8:	9c 81       	ldd	r25, Y+4	; 0x04
     5ea:	0e 94 c5 08 	call	0x118a	; 0x118a <__fixsfsi>

000005ee <.LVL3>:
     5ee:	86 2f       	mov	r24, r22
     5f0:	97 2f       	mov	r25, r23

000005f2 <.Loc.6>:
    if (motor_PWM_R >= TOP_VALUE) motor_PWM_R = TOP_VALUE;
     5f2:	99 23       	and	r25, r25
     5f4:	5c f0       	brlt	.+22     	; 0x60c <.L4>

000005f6 <.L2>:
    OCR4A = motor_PWM_R;
     5f6:	90 93 a9 00 	sts	0x00A9, r25	; 0x8000a9 <__TEXT_REGION_LENGTH__+0x7000a9>
     5fa:	80 93 a8 00 	sts	0x00A8, r24	; 0x8000a8 <__TEXT_REGION_LENGTH__+0x7000a8>

000005fe <.Loc.10>:
}
     5fe:	0f 90       	pop	r0
     600:	0f 90       	pop	r0
     602:	0f 90       	pop	r0
     604:	0f 90       	pop	r0
     606:	df 91       	pop	r29
     608:	cf 91       	pop	r28
     60a:	08 95       	ret

0000060c <.L4>:
    if (motor_PWM_R >= TOP_VALUE) motor_PWM_R = TOP_VALUE;
     60c:	80 e4       	ldi	r24, 0x40	; 64
     60e:	9c e9       	ldi	r25, 0x9C	; 156
     610:	f2 cf       	rjmp	.-28     	; 0x5f6 <.L2>

00000612 <motor_L>:

/// IFSTATEMENT VOOR PWM 0 EN 100

void motor_L(float factor)
{
     612:	cf 93       	push	r28
     614:	df 93       	push	r29
     616:	00 d0       	rcall	.+0      	; 0x618 <L0^A>

00000618 <L0^A>:
     618:	0f 92       	push	r0
     61a:	cd b7       	in	r28, 0x3d	; 61
     61c:	de b7       	in	r29, 0x3e	; 62

0000061e <.Loc.14>:
    int motor_PWM_L = PWM * factor;
     61e:	20 e0       	ldi	r18, 0x00	; 0
     620:	30 e4       	ldi	r19, 0x40	; 64
     622:	4c e9       	ldi	r20, 0x9C	; 156
     624:	56 e4       	ldi	r21, 0x46	; 70
     626:	69 83       	std	Y+1, r22	; 0x01
     628:	7a 83       	std	Y+2, r23	; 0x02
     62a:	8b 83       	std	Y+3, r24	; 0x03
     62c:	9c 83       	std	Y+4, r25	; 0x04
     62e:	69 81       	ldd	r22, Y+1	; 0x01
     630:	7a 81       	ldd	r23, Y+2	; 0x02
     632:	8b 81       	ldd	r24, Y+3	; 0x03
     634:	9c 81       	ldd	r25, Y+4	; 0x04

00000636 <.Loc.16>:
     636:	0e 94 89 09 	call	0x1312	; 0x1312 <__mulsf3>

0000063a <.LVL9>:
     63a:	69 83       	std	Y+1, r22	; 0x01
     63c:	7a 83       	std	Y+2, r23	; 0x02
     63e:	8b 83       	std	Y+3, r24	; 0x03
     640:	9c 83       	std	Y+4, r25	; 0x04
     642:	69 81       	ldd	r22, Y+1	; 0x01
     644:	7a 81       	ldd	r23, Y+2	; 0x02
     646:	8b 81       	ldd	r24, Y+3	; 0x03
     648:	9c 81       	ldd	r25, Y+4	; 0x04
     64a:	0e 94 c5 08 	call	0x118a	; 0x118a <__fixsfsi>

0000064e <.LVL10>:
     64e:	86 2f       	mov	r24, r22
     650:	97 2f       	mov	r25, r23

00000652 <.Loc.18>:
    if (motor_PWM_L >= TOP_VALUE) motor_PWM_L = TOP_VALUE;
     652:	99 23       	and	r25, r25
     654:	5c f0       	brlt	.+22     	; 0x66c <.L8>

00000656 <.L6>:
    OCR5A = motor_PWM_L;
     656:	90 93 29 01 	sts	0x0129, r25	; 0x800129 <__TEXT_REGION_LENGTH__+0x700129>
     65a:	80 93 28 01 	sts	0x0128, r24	; 0x800128 <__TEXT_REGION_LENGTH__+0x700128>

0000065e <.Loc.22>:
}
     65e:	0f 90       	pop	r0
     660:	0f 90       	pop	r0
     662:	0f 90       	pop	r0
     664:	0f 90       	pop	r0
     666:	df 91       	pop	r29
     668:	cf 91       	pop	r28
     66a:	08 95       	ret

0000066c <.L8>:
    if (motor_PWM_L >= TOP_VALUE) motor_PWM_L = TOP_VALUE;
     66c:	80 e4       	ldi	r24, 0x40	; 64
     66e:	9c e9       	ldi	r25, 0x9C	; 156
     670:	f2 cf       	rjmp	.-28     	; 0x656 <.L6>

00000672 <motor_config>:

void motor_config(int mode, int kant)
{
     672:	28 2f       	mov	r18, r24
     674:	39 2f       	mov	r19, r25
     676:	86 2f       	mov	r24, r22

00000678 <.Loc.26>:
     678:	97 2f       	mov	r25, r23

0000067a <.Loc.27>:
    enum motor_actie actie = mode;
    enum richting motor = kant;
    if (kant == LINKS) // y = 0s
     67a:	81 30       	cpi	r24, 0x01	; 1
     67c:	91 05       	cpc	r25, r1
     67e:	59 f0       	breq	.+22     	; 0x696 <.L17>

00000680 <.Loc.31>:
                break;
            }
        }
    }

    if (motor == RECHTS) // y = 1
     680:	89 2b       	or	r24, r25
     682:	41 f4       	brne	.+16     	; 0x694 <.L9>

00000684 <.Loc.33>:
    {
        switch (actie)
     684:	21 30       	cpi	r18, 0x01	; 1
     686:	31 05       	cpc	r19, r1
     688:	91 f1       	breq	.+100    	; 0x6ee <.L15>
     68a:	22 30       	cpi	r18, 0x02	; 2
     68c:	31 05       	cpc	r19, r1
     68e:	c1 f1       	breq	.+112    	; 0x700 <.L16>
     690:	23 2b       	or	r18, r19
     692:	21 f1       	breq	.+72     	; 0x6dc <.L18>

00000694 <.L9>:
                PWM_IN_2_PORT |= (1 << PWM_IN_2);   //HIGH
                break;
            }
        }
    }
}
     694:	08 95       	ret

00000696 <.L17>:
        switch (mode)
     696:	21 30       	cpi	r18, 0x01	; 1
     698:	31 05       	cpc	r19, r1
     69a:	71 f0       	breq	.+28     	; 0x6b8 <.L11>
     69c:	22 30       	cpi	r18, 0x02	; 2
     69e:	31 05       	cpc	r19, r1
     6a0:	a1 f0       	breq	.+40     	; 0x6ca <.L12>
     6a2:	23 2b       	or	r18, r19
     6a4:	b9 f7       	brne	.-18     	; 0x694 <.L9>

000006a6 <.Loc.36>:
                PWM_IN_3_PORT |= (1 << PWM_IN_3);   //HIGH
     6a6:	eb e0       	ldi	r30, 0x0B	; 11
     6a8:	f1 e0       	ldi	r31, 0x01	; 1
     6aa:	80 81       	ld	r24, Z

000006ac <.Loc.37>:
     6ac:	84 60       	ori	r24, 0x04	; 4
     6ae:	80 83       	st	Z, r24

000006b0 <.Loc.38>:
                PWM_IN_4_PORT &= ~(1 << PWM_IN_4);  //LOW
     6b0:	80 81       	ld	r24, Z
     6b2:	8e 7f       	andi	r24, 0xFE	; 254
     6b4:	80 83       	st	Z, r24

000006b6 <.Loc.40>:
                break;
     6b6:	08 95       	ret

000006b8 <.L11>:
                PWM_IN_3_PORT &= ~(1 << PWM_IN_3);  //LOW
     6b8:	eb e0       	ldi	r30, 0x0B	; 11
     6ba:	f1 e0       	ldi	r31, 0x01	; 1
     6bc:	80 81       	ld	r24, Z

000006be <.Loc.43>:
     6be:	8b 7f       	andi	r24, 0xFB	; 251
     6c0:	80 83       	st	Z, r24

000006c2 <.Loc.44>:
                PWM_IN_4_PORT |= (1 << PWM_IN_4);   //HIGH
     6c2:	80 81       	ld	r24, Z

000006c4 <.Loc.45>:
     6c4:	81 60       	ori	r24, 0x01	; 1
     6c6:	80 83       	st	Z, r24

000006c8 <.Loc.46>:
                break;
     6c8:	08 95       	ret

000006ca <.L12>:
                PWM_IN_3_PORT |= (1 << PWM_IN_3);   //HIGH
     6ca:	eb e0       	ldi	r30, 0x0B	; 11
     6cc:	f1 e0       	ldi	r31, 0x01	; 1
     6ce:	80 81       	ld	r24, Z

000006d0 <.Loc.48>:
     6d0:	84 60       	ori	r24, 0x04	; 4
     6d2:	80 83       	st	Z, r24

000006d4 <.Loc.49>:
                PWM_IN_4_PORT |= (1 << PWM_IN_4);   //HIGH
     6d4:	80 81       	ld	r24, Z

000006d6 <.Loc.50>:
     6d6:	81 60       	ori	r24, 0x01	; 1
     6d8:	80 83       	st	Z, r24

000006da <.Loc.51>:
                break;
     6da:	08 95       	ret

000006dc <.L18>:
                PWM_IN_1_PORT |= (1 << PWM_IN_1);   //HIGH
     6dc:	eb e0       	ldi	r30, 0x0B	; 11
     6de:	f1 e0       	ldi	r31, 0x01	; 1
     6e0:	80 81       	ld	r24, Z

000006e2 <.Loc.53>:
     6e2:	80 64       	ori	r24, 0x40	; 64
     6e4:	80 83       	st	Z, r24

000006e6 <.Loc.54>:
                PWM_IN_2_PORT &= ~(1 << PWM_IN_2);  //LOW
     6e6:	80 81       	ld	r24, Z
     6e8:	8f 7e       	andi	r24, 0xEF	; 239
     6ea:	80 83       	st	Z, r24

000006ec <.Loc.56>:
                break;
     6ec:	08 95       	ret

000006ee <.L15>:
                PWM_IN_1_PORT &= ~(1 << PWM_IN_1);  //LOW
     6ee:	eb e0       	ldi	r30, 0x0B	; 11
     6f0:	f1 e0       	ldi	r31, 0x01	; 1
     6f2:	80 81       	ld	r24, Z

000006f4 <.Loc.59>:
     6f4:	8f 7b       	andi	r24, 0xBF	; 191
     6f6:	80 83       	st	Z, r24

000006f8 <.Loc.60>:
                PWM_IN_2_PORT |= (1 << PWM_IN_2);   //HIGH
     6f8:	80 81       	ld	r24, Z

000006fa <.Loc.61>:
     6fa:	80 61       	ori	r24, 0x10	; 16
     6fc:	80 83       	st	Z, r24

000006fe <.Loc.62>:
                break;
     6fe:	08 95       	ret

00000700 <.L16>:
                PWM_IN_1_PORT |= (1 << PWM_IN_1);   //HIGH
     700:	eb e0       	ldi	r30, 0x0B	; 11
     702:	f1 e0       	ldi	r31, 0x01	; 1
     704:	80 81       	ld	r24, Z

00000706 <.Loc.64>:
     706:	80 64       	ori	r24, 0x40	; 64
     708:	80 83       	st	Z, r24

0000070a <.Loc.65>:
                PWM_IN_2_PORT |= (1 << PWM_IN_2);   //HIGH
     70a:	80 81       	ld	r24, Z

0000070c <.Loc.66>:
     70c:	80 61       	ori	r24, 0x10	; 16
     70e:	80 83       	st	Z, r24

00000710 <.Loc.67>:
}
     710:	c1 cf       	rjmp	.-126    	; 0x694 <.L9>

00000712 <percentageSteering_R>:
#include "navigatie_lib.h"
#include "motor_lib.h"
#include "test_func.h"

float percentageSteering_R(int temp) //int diffAfstand
{
     712:	cf 93       	push	r28
     714:	df 93       	push	r29
     716:	00 d0       	rcall	.+0      	; 0x718 <L0^A>

00000718 <L0^A>:
     718:	0f 92       	push	r0
     71a:	cd b7       	in	r28, 0x3d	; 61
     71c:	de b7       	in	r29, 0x3e	; 62
     71e:	28 2f       	mov	r18, r24
     720:	39 2f       	mov	r19, r25

00000722 <.Loc.2>:
    static float helftPadBreedte = HALF_PAD;
    static float percentageAfwijking = 0;
    if (helftPadBreedte < temp)  percentageAfwijking = 0;
     722:	20 31       	cpi	r18, 0x10	; 16
     724:	31 05       	cpc	r19, r1
     726:	0c f0       	brlt	.+2      	; 0x72a <.Loc.6>

00000728 <L0^A>:
     728:	41 c0       	rjmp	.+130    	; 0x7ac <.L3>

0000072a <.Loc.6>:
     72a:	c9 01       	movw	r24, r18
     72c:	33 0f       	add	r19, r19
     72e:	aa 0b       	sbc	r26, r26
     730:	bb 0b       	sbc	r27, r27

00000732 <.Loc.8>:
     732:	89 83       	std	Y+1, r24	; 0x01
     734:	9a 83       	std	Y+2, r25	; 0x02
     736:	ab 83       	std	Y+3, r26	; 0x03
     738:	bc 83       	std	Y+4, r27	; 0x04
     73a:	bc 01       	movw	r22, r24
     73c:	cd 01       	movw	r24, r26
     73e:	0e 94 fd 08 	call	0x11fa	; 0x11fa <__floatsisf>

00000742 <.LVL2>:
    else percentageAfwijking = (helftPadBreedte - temp)/helftPadBreedte;
     742:	26 2f       	mov	r18, r22
     744:	37 2f       	mov	r19, r23
     746:	48 2f       	mov	r20, r24
     748:	59 2f       	mov	r21, r25
     74a:	60 e0       	ldi	r22, 0x00	; 0
     74c:	70 e0       	ldi	r23, 0x00	; 0
     74e:	80 e7       	ldi	r24, 0x70	; 112
     750:	91 e4       	ldi	r25, 0x41	; 65
     752:	0e 94 e6 07 	call	0xfcc	; 0xfcc <__subsf3>

00000756 <.LVL3>:
     756:	20 e0       	ldi	r18, 0x00	; 0
     758:	30 e0       	ldi	r19, 0x00	; 0
     75a:	40 e7       	ldi	r20, 0x70	; 112
     75c:	51 e4       	ldi	r21, 0x41	; 65
     75e:	69 83       	std	Y+1, r22	; 0x01
     760:	7a 83       	std	Y+2, r23	; 0x02
     762:	8b 83       	std	Y+3, r24	; 0x03
     764:	9c 83       	std	Y+4, r25	; 0x04
     766:	69 81       	ldd	r22, Y+1	; 0x01
     768:	7a 81       	ldd	r23, Y+2	; 0x02
     76a:	8b 81       	ldd	r24, Y+3	; 0x03
     76c:	9c 81       	ldd	r25, Y+4	; 0x04
     76e:	0e 94 53 08 	call	0x10a6	; 0x10a6 <__divsf3>

00000772 <.LVL4>:
     772:	36 2f       	mov	r19, r22
     774:	27 2f       	mov	r18, r23

00000776 <.L2>:
    if (helftPadBreedte < temp)  percentageAfwijking = 0;
     776:	43 2f       	mov	r20, r19
     778:	52 2f       	mov	r21, r18
     77a:	68 2f       	mov	r22, r24
     77c:	79 2f       	mov	r23, r25
     77e:	40 93 3a 02 	sts	0x023A, r20	; 0x80023a <percentageAfwijking.6>
     782:	50 93 3b 02 	sts	0x023B, r21	; 0x80023b <percentageAfwijking.6+0x1>
     786:	60 93 3c 02 	sts	0x023C, r22	; 0x80023c <percentageAfwijking.6+0x2>
     78a:	70 93 3d 02 	sts	0x023D, r23	; 0x80023d <percentageAfwijking.6+0x3>

0000078e <.Loc.12>:
    return percentageAfwijking;
}
     78e:	39 83       	std	Y+1, r19	; 0x01
     790:	2a 83       	std	Y+2, r18	; 0x02
     792:	8b 83       	std	Y+3, r24	; 0x03
     794:	9c 83       	std	Y+4, r25	; 0x04
     796:	69 81       	ldd	r22, Y+1	; 0x01
     798:	7a 81       	ldd	r23, Y+2	; 0x02
     79a:	8b 81       	ldd	r24, Y+3	; 0x03
     79c:	9c 81       	ldd	r25, Y+4	; 0x04
     79e:	0f 90       	pop	r0
     7a0:	0f 90       	pop	r0
     7a2:	0f 90       	pop	r0
     7a4:	0f 90       	pop	r0
     7a6:	df 91       	pop	r29
     7a8:	cf 91       	pop	r28
     7aa:	08 95       	ret

000007ac <.L3>:
     7ac:	30 e0       	ldi	r19, 0x00	; 0
     7ae:	20 e0       	ldi	r18, 0x00	; 0
     7b0:	80 e0       	ldi	r24, 0x00	; 0

000007b2 <.Loc.15>:
     7b2:	90 e0       	ldi	r25, 0x00	; 0
     7b4:	e0 cf       	rjmp	.-64     	; 0x776 <.L2>

000007b6 <percentageSteering_L>:

float percentageSteering_L(int temp) //int diffAfstand
{
     7b6:	cf 93       	push	r28
     7b8:	df 93       	push	r29
     7ba:	00 d0       	rcall	.+0      	; 0x7bc <L0^A>

000007bc <L0^A>:
     7bc:	0f 92       	push	r0
     7be:	cd b7       	in	r28, 0x3d	; 61
     7c0:	de b7       	in	r29, 0x3e	; 62
     7c2:	28 2f       	mov	r18, r24
     7c4:	39 2f       	mov	r19, r25

000007c6 <.Loc.18>:
    static float helftPadBreedte = HALF_PAD;
    static float percentageAfwijking = 0;
    if (helftPadBreedte < temp)  percentageAfwijking = 0;
     7c6:	20 31       	cpi	r18, 0x10	; 16
     7c8:	31 05       	cpc	r19, r1
     7ca:	0c f0       	brlt	.+2      	; 0x7ce <.Loc.22>

000007cc <L0^A>:
     7cc:	41 c0       	rjmp	.+130    	; 0x850 <.L6>

000007ce <.Loc.22>:
     7ce:	c9 01       	movw	r24, r18
     7d0:	33 0f       	add	r19, r19
     7d2:	aa 0b       	sbc	r26, r26
     7d4:	bb 0b       	sbc	r27, r27

000007d6 <.Loc.24>:
     7d6:	89 83       	std	Y+1, r24	; 0x01
     7d8:	9a 83       	std	Y+2, r25	; 0x02
     7da:	ab 83       	std	Y+3, r26	; 0x03
     7dc:	bc 83       	std	Y+4, r27	; 0x04
     7de:	bc 01       	movw	r22, r24
     7e0:	cd 01       	movw	r24, r26
     7e2:	0e 94 fd 08 	call	0x11fa	; 0x11fa <__floatsisf>

000007e6 <.LVL9>:
    else percentageAfwijking = (helftPadBreedte - temp)/helftPadBreedte;
     7e6:	26 2f       	mov	r18, r22
     7e8:	37 2f       	mov	r19, r23
     7ea:	48 2f       	mov	r20, r24
     7ec:	59 2f       	mov	r21, r25
     7ee:	60 e0       	ldi	r22, 0x00	; 0
     7f0:	70 e0       	ldi	r23, 0x00	; 0
     7f2:	80 e7       	ldi	r24, 0x70	; 112
     7f4:	91 e4       	ldi	r25, 0x41	; 65
     7f6:	0e 94 e6 07 	call	0xfcc	; 0xfcc <__subsf3>

000007fa <.LVL10>:
     7fa:	20 e0       	ldi	r18, 0x00	; 0
     7fc:	30 e0       	ldi	r19, 0x00	; 0
     7fe:	40 e7       	ldi	r20, 0x70	; 112
     800:	51 e4       	ldi	r21, 0x41	; 65
     802:	69 83       	std	Y+1, r22	; 0x01
     804:	7a 83       	std	Y+2, r23	; 0x02
     806:	8b 83       	std	Y+3, r24	; 0x03
     808:	9c 83       	std	Y+4, r25	; 0x04
     80a:	69 81       	ldd	r22, Y+1	; 0x01
     80c:	7a 81       	ldd	r23, Y+2	; 0x02
     80e:	8b 81       	ldd	r24, Y+3	; 0x03
     810:	9c 81       	ldd	r25, Y+4	; 0x04
     812:	0e 94 53 08 	call	0x10a6	; 0x10a6 <__divsf3>

00000816 <.LVL11>:
     816:	36 2f       	mov	r19, r22
     818:	27 2f       	mov	r18, r23

0000081a <.L5>:
    if (helftPadBreedte < temp)  percentageAfwijking = 0;
     81a:	43 2f       	mov	r20, r19
     81c:	52 2f       	mov	r21, r18
     81e:	68 2f       	mov	r22, r24
     820:	79 2f       	mov	r23, r25
     822:	40 93 36 02 	sts	0x0236, r20	; 0x800236 <percentageAfwijking.4>
     826:	50 93 37 02 	sts	0x0237, r21	; 0x800237 <percentageAfwijking.4+0x1>
     82a:	60 93 38 02 	sts	0x0238, r22	; 0x800238 <percentageAfwijking.4+0x2>
     82e:	70 93 39 02 	sts	0x0239, r23	; 0x800239 <percentageAfwijking.4+0x3>

00000832 <.Loc.28>:
    return percentageAfwijking;
}
     832:	39 83       	std	Y+1, r19	; 0x01
     834:	2a 83       	std	Y+2, r18	; 0x02
     836:	8b 83       	std	Y+3, r24	; 0x03
     838:	9c 83       	std	Y+4, r25	; 0x04
     83a:	69 81       	ldd	r22, Y+1	; 0x01
     83c:	7a 81       	ldd	r23, Y+2	; 0x02
     83e:	8b 81       	ldd	r24, Y+3	; 0x03
     840:	9c 81       	ldd	r25, Y+4	; 0x04
     842:	0f 90       	pop	r0
     844:	0f 90       	pop	r0
     846:	0f 90       	pop	r0
     848:	0f 90       	pop	r0
     84a:	df 91       	pop	r29
     84c:	cf 91       	pop	r28
     84e:	08 95       	ret

00000850 <.L6>:
     850:	30 e0       	ldi	r19, 0x00	; 0
     852:	20 e0       	ldi	r18, 0x00	; 0
     854:	80 e0       	ldi	r24, 0x00	; 0

00000856 <.Loc.31>:
     856:	90 e0       	ldi	r25, 0x00	; 0
     858:	e0 cf       	rjmp	.-64     	; 0x81a <.L5>

0000085a <padNavigeren>:

void padNavigeren(int kant)
{
     85a:	0f 93       	push	r16
     85c:	1f 93       	push	r17
     85e:	cf 93       	push	r28
     860:	df 93       	push	r29
     862:	00 d0       	rcall	.+0      	; 0x864 <L0^A>

00000864 <L0^A>:
     864:	00 d0       	rcall	.+0      	; 0x866 <L0^A>

00000866 <L0^A>:
     866:	cd b7       	in	r28, 0x3d	; 61
     868:	de b7       	in	r29, 0x3e	; 62
     86a:	8d 83       	std	Y+5, r24	; 0x05
     86c:	9e 83       	std	Y+6, r25	; 0x06

0000086e <.Loc.34>:
    static int diffAfstand = 0;
    static int afstand_L = 0;
    static int afstand_R = 0;
    static int meet_tick = 0;

    motor_config(VOORUIT, LINKS);
     86e:	61 e0       	ldi	r22, 0x01	; 1
     870:	70 e0       	ldi	r23, 0x00	; 0
     872:	80 e0       	ldi	r24, 0x00	; 0
     874:	90 e0       	ldi	r25, 0x00	; 0

00000876 <.Loc.40>:
     876:	0e 94 39 03 	call	0x672	; 0x672 <motor_config>

0000087a <.LVL16>:
    motor_config(VOORUIT, RECHTS);
     87a:	60 e0       	ldi	r22, 0x00	; 0
     87c:	70 e0       	ldi	r23, 0x00	; 0
     87e:	80 e0       	ldi	r24, 0x00	; 0
     880:	90 e0       	ldi	r25, 0x00	; 0
     882:	0e 94 39 03 	call	0x672	; 0x672 <motor_config>

00000886 <.LVL17>:


    motor_L(1.0);
     886:	60 e0       	ldi	r22, 0x00	; 0
     888:	70 e0       	ldi	r23, 0x00	; 0
     88a:	80 e8       	ldi	r24, 0x80	; 128
     88c:	9f e3       	ldi	r25, 0x3F	; 63
     88e:	0e 94 09 03 	call	0x612	; 0x612 <motor_L>

00000892 <.LVL18>:
    motor_R(1.0);
     892:	60 e0       	ldi	r22, 0x00	; 0
     894:	70 e0       	ldi	r23, 0x00	; 0
     896:	80 e8       	ldi	r24, 0x80	; 128
     898:	9f e3       	ldi	r25, 0x3F	; 63
     89a:	0e 94 d9 02 	call	0x5b2	; 0x5b2 <motor_R>

0000089e <.LVL19>:

    while (wandenWeg <= 5)
     89e:	80 91 30 02 	lds	r24, 0x0230	; 0x800230 <wandenWeg.1>
     8a2:	90 91 31 02 	lds	r25, 0x0231	; 0x800231 <wandenWeg.1+0x1>
     8a6:	06 97       	sbiw	r24, 0x06	; 6
     8a8:	0c f0       	brlt	.+2      	; 0x8ac <.Loc.46>

000008aa <L0^A>:
     8aa:	a9 c0       	rjmp	.+338    	; 0x9fe <.L7>

000008ac <.Loc.46>:
            //    diffAfstand = 0;
            //    motor_L(1.0);
            //    motor_R(1.0);
            //}

            if (afstand_R > VERWEG || afstand_L > VERWEG) diffAfstand = 999;
     8ac:	07 ee       	ldi	r16, 0xE7	; 231
     8ae:	13 e0       	ldi	r17, 0x03	; 3
     8b0:	3f c0       	rjmp	.+126    	; 0x930 <.L15>

000008b2 <.L9>:
        else if ((ultrasoonAfstand_L() > VERWEG) && (kant == LINKS)) wandenWeg++;
     8b2:	0e 94 43 06 	call	0xc86	; 0xc86 <ultrasoonAfstand_L>

000008b6 <.LVL20>:
     8b6:	85 36       	cpi	r24, 0x65	; 101
     8b8:	91 05       	cpc	r25, r1
     8ba:	28 f0       	brcs	.+10     	; 0x8c6 <.L11>

000008bc <.Loc.50>:
     8bc:	8d 81       	ldd	r24, Y+5	; 0x05
     8be:	9e 81       	ldd	r25, Y+6	; 0x06
     8c0:	01 97       	sbiw	r24, 0x01	; 1
     8c2:	09 f4       	brne	.+2      	; 0x8c6 <.L11>

000008c4 <L0^A>:
     8c4:	5c c0       	rjmp	.+184    	; 0x97e <.L17>

000008c6 <.L11>:
            wandenWeg = 0;
     8c6:	10 92 31 02 	sts	0x0231, r1	; 0x800231 <wandenWeg.1+0x1>
     8ca:	10 92 30 02 	sts	0x0230, r1	; 0x800230 <wandenWeg.1>

000008ce <.Loc.53>:
            if (afstand_L > afstand_R)
     8ce:	80 91 32 02 	lds	r24, 0x0232	; 0x800232 <afstand_L.2>
     8d2:	90 91 33 02 	lds	r25, 0x0233	; 0x800233 <afstand_L.2+0x1>
     8d6:	20 91 34 02 	lds	r18, 0x0234	; 0x800234 <afstand_R.3>
     8da:	30 91 35 02 	lds	r19, 0x0235	; 0x800235 <afstand_R.3+0x1>

000008de <.Loc.55>:
     8de:	28 17       	cp	r18, r24
     8e0:	39 07       	cpc	r19, r25
     8e2:	0c f4       	brge	.+2      	; 0x8e6 <.L12>

000008e4 <L0^A>:
     8e4:	56 c0       	rjmp	.+172    	; 0x992 <.L18>

000008e6 <.L12>:
            if (afstand_R > afstand_L)
     8e6:	80 91 34 02 	lds	r24, 0x0234	; 0x800234 <afstand_R.3>
     8ea:	90 91 35 02 	lds	r25, 0x0235	; 0x800235 <afstand_R.3+0x1>
     8ee:	20 91 32 02 	lds	r18, 0x0232	; 0x800232 <afstand_L.2>
     8f2:	30 91 33 02 	lds	r19, 0x0233	; 0x800233 <afstand_L.2+0x1>

000008f6 <.Loc.58>:
     8f6:	28 17       	cp	r18, r24
     8f8:	39 07       	cpc	r19, r25
     8fa:	0c f4       	brge	.+2      	; 0x8fe <.L13>

000008fc <L0^A>:
     8fc:	67 c0       	rjmp	.+206    	; 0x9cc <.L19>

000008fe <.L13>:
            if (afstand_R > VERWEG || afstand_L > VERWEG) diffAfstand = 999;
     8fe:	80 91 34 02 	lds	r24, 0x0234	; 0x800234 <afstand_R.3>
     902:	90 91 35 02 	lds	r25, 0x0235	; 0x800235 <afstand_R.3+0x1>
     906:	85 36       	cpi	r24, 0x65	; 101
     908:	91 05       	cpc	r25, r1
     90a:	3c f4       	brge	.+14     	; 0x91a <.L14>

0000090c <.Loc.61>:
     90c:	80 91 32 02 	lds	r24, 0x0232	; 0x800232 <afstand_L.2>
     910:	90 91 33 02 	lds	r25, 0x0233	; 0x800233 <afstand_L.2+0x1>
     914:	85 36       	cpi	r24, 0x65	; 101
     916:	91 05       	cpc	r25, r1
     918:	24 f0       	brlt	.+8      	; 0x922 <.L10>

0000091a <.L14>:
     91a:	10 93 2f 02 	sts	0x022F, r17	; 0x80022f <diffAfstand.0+0x1>
     91e:	00 93 2e 02 	sts	0x022E, r16	; 0x80022e <diffAfstand.0>

00000922 <.L10>:
    while (wandenWeg <= 5)
     922:	80 91 30 02 	lds	r24, 0x0230	; 0x800230 <wandenWeg.1>
     926:	90 91 31 02 	lds	r25, 0x0231	; 0x800231 <wandenWeg.1+0x1>
     92a:	06 97       	sbiw	r24, 0x06	; 6
     92c:	0c f0       	brlt	.+2      	; 0x930 <.L15>

0000092e <L0^A>:
     92e:	67 c0       	rjmp	.+206    	; 0x9fe <.L7>

00000930 <.L15>:
        print_waarde(afstand_R);
     930:	80 91 34 02 	lds	r24, 0x0234	; 0x800234 <afstand_R.3>
     934:	90 91 35 02 	lds	r25, 0x0235	; 0x800235 <afstand_R.3+0x1>
     938:	0e 94 cf 06 	call	0xd9e	; 0xd9e <print_waarde>

0000093c <.LVL21>:
        afstand_L = ultrasoonAfstand_L();
     93c:	0e 94 43 06 	call	0xc86	; 0xc86 <ultrasoonAfstand_L>

00000940 <.LVL22>:
     940:	90 93 33 02 	sts	0x0233, r25	; 0x800233 <afstand_L.2+0x1>
     944:	80 93 32 02 	sts	0x0232, r24	; 0x800232 <afstand_L.2>

00000948 <.Loc.69>:
        afstand_R = ultrasoonAfstand_R();
     948:	0e 94 e1 05 	call	0xbc2	; 0xbc2 <ultrasoonAfstand_R>

0000094c <.LVL23>:
     94c:	90 93 35 02 	sts	0x0235, r25	; 0x800235 <afstand_R.3+0x1>
     950:	80 93 34 02 	sts	0x0234, r24	; 0x800234 <afstand_R.3>

00000954 <.Loc.72>:
        if ((ultrasoonAfstand_R() > VERWEG) && (kant == RECHTS)) wandenWeg++;
     954:	0e 94 e1 05 	call	0xbc2	; 0xbc2 <ultrasoonAfstand_R>

00000958 <.LVL24>:
     958:	85 36       	cpi	r24, 0x65	; 101
     95a:	91 05       	cpc	r25, r1
     95c:	08 f4       	brcc	.+2      	; 0x960 <.Loc.75>

0000095e <L0^A>:
     95e:	a9 cf       	rjmp	.-174    	; 0x8b2 <.L9>

00000960 <.Loc.75>:
     960:	8d 81       	ldd	r24, Y+5	; 0x05
     962:	9e 81       	ldd	r25, Y+6	; 0x06
     964:	89 2b       	or	r24, r25
     966:	09 f0       	breq	.+2      	; 0x96a <.Loc.76>

00000968 <L0^A>:
     968:	a4 cf       	rjmp	.-184    	; 0x8b2 <.L9>

0000096a <.Loc.76>:
     96a:	80 91 30 02 	lds	r24, 0x0230	; 0x800230 <wandenWeg.1>
     96e:	90 91 31 02 	lds	r25, 0x0231	; 0x800231 <wandenWeg.1+0x1>
     972:	01 96       	adiw	r24, 0x01	; 1
     974:	90 93 31 02 	sts	0x0231, r25	; 0x800231 <wandenWeg.1+0x1>
     978:	80 93 30 02 	sts	0x0230, r24	; 0x800230 <wandenWeg.1>
     97c:	d2 cf       	rjmp	.-92     	; 0x922 <.L10>

0000097e <.L17>:
        else if ((ultrasoonAfstand_L() > VERWEG) && (kant == LINKS)) wandenWeg++;
     97e:	80 91 30 02 	lds	r24, 0x0230	; 0x800230 <wandenWeg.1>
     982:	90 91 31 02 	lds	r25, 0x0231	; 0x800231 <wandenWeg.1+0x1>
     986:	01 96       	adiw	r24, 0x01	; 1
     988:	90 93 31 02 	sts	0x0231, r25	; 0x800231 <wandenWeg.1+0x1>
     98c:	80 93 30 02 	sts	0x0230, r24	; 0x800230 <wandenWeg.1>
     990:	c8 cf       	rjmp	.-112    	; 0x922 <.L10>

00000992 <.L18>:
                diffAfstand = afstand_L - afstand_R;
     992:	82 1b       	sub	r24, r18
     994:	93 0b       	sbc	r25, r19

00000996 <.Loc.82>:
     996:	90 93 2f 02 	sts	0x022F, r25	; 0x80022f <diffAfstand.0+0x1>
     99a:	80 93 2e 02 	sts	0x022E, r24	; 0x80022e <diffAfstand.0>

0000099e <.Loc.83>:
                motor_L(1.0);
     99e:	60 e0       	ldi	r22, 0x00	; 0
     9a0:	70 e0       	ldi	r23, 0x00	; 0
     9a2:	80 e8       	ldi	r24, 0x80	; 128
     9a4:	9f e3       	ldi	r25, 0x3F	; 63
     9a6:	0e 94 09 03 	call	0x612	; 0x612 <motor_L>

000009aa <.LVL25>:
                motor_R(percentageSteering_R(diffAfstand));
     9aa:	80 91 2e 02 	lds	r24, 0x022E	; 0x80022e <diffAfstand.0>
     9ae:	90 91 2f 02 	lds	r25, 0x022F	; 0x80022f <diffAfstand.0+0x1>
     9b2:	0e 94 89 03 	call	0x712	; 0x712 <percentageSteering_R>

000009b6 <.LVL26>:
     9b6:	69 83       	std	Y+1, r22	; 0x01
     9b8:	7a 83       	std	Y+2, r23	; 0x02
     9ba:	8b 83       	std	Y+3, r24	; 0x03
     9bc:	9c 83       	std	Y+4, r25	; 0x04
     9be:	69 81       	ldd	r22, Y+1	; 0x01
     9c0:	7a 81       	ldd	r23, Y+2	; 0x02
     9c2:	8b 81       	ldd	r24, Y+3	; 0x03
     9c4:	9c 81       	ldd	r25, Y+4	; 0x04
     9c6:	0e 94 d9 02 	call	0x5b2	; 0x5b2 <motor_R>

000009ca <.LVL27>:
     9ca:	8d cf       	rjmp	.-230    	; 0x8e6 <.L12>

000009cc <.L19>:
                diffAfstand = afstand_R - afstand_L;
     9cc:	82 1b       	sub	r24, r18
     9ce:	93 0b       	sbc	r25, r19

000009d0 <.Loc.87>:
     9d0:	90 93 2f 02 	sts	0x022F, r25	; 0x80022f <diffAfstand.0+0x1>
     9d4:	80 93 2e 02 	sts	0x022E, r24	; 0x80022e <diffAfstand.0>

000009d8 <.Loc.88>:
                motor_L(percentageSteering_L(diffAfstand));
     9d8:	0e 94 db 03 	call	0x7b6	; 0x7b6 <percentageSteering_L>

000009dc <.LVL28>:
     9dc:	69 83       	std	Y+1, r22	; 0x01
     9de:	7a 83       	std	Y+2, r23	; 0x02
     9e0:	8b 83       	std	Y+3, r24	; 0x03
     9e2:	9c 83       	std	Y+4, r25	; 0x04
     9e4:	69 81       	ldd	r22, Y+1	; 0x01
     9e6:	7a 81       	ldd	r23, Y+2	; 0x02
     9e8:	8b 81       	ldd	r24, Y+3	; 0x03
     9ea:	9c 81       	ldd	r25, Y+4	; 0x04
     9ec:	0e 94 09 03 	call	0x612	; 0x612 <motor_L>

000009f0 <.LVL29>:
                motor_R(1.0);
     9f0:	60 e0       	ldi	r22, 0x00	; 0
     9f2:	70 e0       	ldi	r23, 0x00	; 0
     9f4:	80 e8       	ldi	r24, 0x80	; 128
     9f6:	9f e3       	ldi	r25, 0x3F	; 63
     9f8:	0e 94 d9 02 	call	0x5b2	; 0x5b2 <motor_R>

000009fc <.LVL30>:
     9fc:	80 cf       	rjmp	.-256    	; 0x8fe <.L13>

000009fe <.L7>:
        }
    }
}
     9fe:	0f 90       	pop	r0
     a00:	0f 90       	pop	r0
     a02:	0f 90       	pop	r0
     a04:	0f 90       	pop	r0
     a06:	0f 90       	pop	r0
     a08:	0f 90       	pop	r0
     a0a:	df 91       	pop	r29
     a0c:	cf 91       	pop	r28
     a0e:	1f 91       	pop	r17
     a10:	0f 91       	pop	r16
     a12:	08 95       	ret

00000a14 <keren>:


void keren(int richting)
{
     a14:	28 2f       	mov	r18, r24
     a16:	39 2f       	mov	r19, r25

00000a18 <.Loc.93>:
    int count = 0;
    if (richting == RECHTS)
     a18:	21 15       	cp	r18, r1
     a1a:	31 05       	cpc	r19, r1
     a1c:	99 f0       	breq	.+38     	; 0xa44 <.L27>

00000a1e <.Loc.96>:
    {
        motor_L(1.0);
        motor_R(FACTOR_KEREN);
    }

    else if (richting == LINKS)
     a1e:	21 30       	cpi	r18, 0x01	; 1
     a20:	31 05       	cpc	r19, r1
     a22:	e9 f0       	breq	.+58     	; 0xa5e <.L28>

00000a24 <.L22>:
{
     a24:	86 e2       	ldi	r24, 0x26	; 38
     a26:	90 e0       	ldi	r25, 0x00	; 0

00000a28 <.Loc.99>:
    while (1)
    {
        if (TIFR1 & (1 << TOV1))
        {
            if (++count >= 38) {break;}
            TIFR1 = (1 << TOV1);
     a28:	41 e0       	ldi	r20, 0x01	; 1

00000a2a <.Loc.100>:
            TCNT1 = RESET_VALUE_TIMER1;
     a2a:	e4 e8       	ldi	r30, 0x84	; 132
     a2c:	f0 e0       	ldi	r31, 0x00	; 0
     a2e:	26 e9       	ldi	r18, 0x96	; 150
     a30:	37 ee       	ldi	r19, 0xE7	; 231

00000a32 <.L23>:
        if (TIFR1 & (1 << TOV1))
     a32:	b0 9b       	sbis	0x16, 0	; 22
     a34:	fe cf       	rjmp	.-4      	; 0xa32 <.L23>

00000a36 <.Loc.104>:
            if (++count >= 38) {break;}
     a36:	01 97       	sbiw	r24, 0x01	; 1

00000a38 <.Loc.106>:
     a38:	00 97       	sbiw	r24, 0x00	; 0
     a3a:	f1 f0       	breq	.+60     	; 0xa78 <.L20>

00000a3c <.Loc.107>:
            TIFR1 = (1 << TOV1);
     a3c:	46 bb       	out	0x16, r20	; 22

00000a3e <.Loc.109>:
            TCNT1 = RESET_VALUE_TIMER1;
     a3e:	31 83       	std	Z+1, r19	; 0x01
     a40:	20 83       	st	Z, r18
     a42:	f7 cf       	rjmp	.-18     	; 0xa32 <.L23>

00000a44 <.L27>:
        motor_L(1.0);
     a44:	60 e0       	ldi	r22, 0x00	; 0
     a46:	70 e0       	ldi	r23, 0x00	; 0
     a48:	80 e8       	ldi	r24, 0x80	; 128
     a4a:	9f e3       	ldi	r25, 0x3F	; 63
     a4c:	0e 94 09 03 	call	0x612	; 0x612 <motor_L>

00000a50 <.LVL38>:
        motor_R(FACTOR_KEREN);
     a50:	6b ed       	ldi	r22, 0xDB	; 219
     a52:	76 eb       	ldi	r23, 0xB6	; 182
     a54:	8d ee       	ldi	r24, 0xED	; 237
     a56:	9e e3       	ldi	r25, 0x3E	; 62
     a58:	0e 94 d9 02 	call	0x5b2	; 0x5b2 <motor_R>

00000a5c <.LVL39>:
     a5c:	e3 cf       	rjmp	.-58     	; 0xa24 <.L22>

00000a5e <.L28>:
        motor_L(FACTOR_KEREN);
     a5e:	6b ed       	ldi	r22, 0xDB	; 219
     a60:	76 eb       	ldi	r23, 0xB6	; 182
     a62:	8d ee       	ldi	r24, 0xED	; 237
     a64:	9e e3       	ldi	r25, 0x3E	; 62
     a66:	0e 94 09 03 	call	0x612	; 0x612 <motor_L>

00000a6a <.LVL41>:
        motor_R(1.0);
     a6a:	60 e0       	ldi	r22, 0x00	; 0
     a6c:	70 e0       	ldi	r23, 0x00	; 0
     a6e:	80 e8       	ldi	r24, 0x80	; 128
     a70:	9f e3       	ldi	r25, 0x3F	; 63
     a72:	0e 94 d9 02 	call	0x5b2	; 0x5b2 <motor_R>

00000a76 <.LVL42>:
     a76:	d6 cf       	rjmp	.-84     	; 0xa24 <.L22>

00000a78 <.L20>:
        }
    }
}
     a78:	08 95       	ret

00000a7a <programma_keuze>:
#include "motor_lib.h"
#include "programma_keuze.h"
#include <util/delay.h>

int programma_keuze(void)
{
     a7a:	cf 92       	push	r12
     a7c:	df 92       	push	r13
     a7e:	ef 92       	push	r14
     a80:	ff 92       	push	r15
     a82:	0f 93       	push	r16
     a84:	1f 93       	push	r17
     a86:	cf 93       	push	r28
     a88:	df 93       	push	r29

00000a8a <.Loc.1>:
    init_function();
     a8a:	0e 94 0a 01 	call	0x214	; 0x214 <init_function>

00000a8e <.LVL0>:
    enum programma {startUp, rechtdoor, keren_R, keren_L, pakketTellen, parkour};
    enum programma programma = startUp;
    int pressed = 1;
     a8e:	21 e0       	ldi	r18, 0x01	; 1
     a90:	30 e0       	ldi	r19, 0x00	; 0

00000a92 <.Loc.9>:
    enum programma programma = startUp;
     a92:	80 e0       	ldi	r24, 0x00	; 0
     a94:	90 e0       	ldi	r25, 0x00	; 0

00000a96 <.Loc.10>:
    while (keuzeGemaakt == 0)
    {
        if (!(KNOP_1_PIN & (1 << KNOP_1)) && pressed == 0)                              // knop 1 --> rechtdoor
        {
            programma = rechtdoor;
            pressed = 1;
     a96:	71 e0       	ldi	r23, 0x01	; 1
     a98:	60 e0       	ldi	r22, 0x00	; 0

00000a9a <.Loc.11>:
            PORTB |= (1 << PB6);
            PORTB |= (1 << PB5);
        }
        if (!(KNOP_2_PIN & (1 << KNOP_2)) && pressed == 0)                              // knop 2 --> keren R
        {
            programma = keren_R;
     a9a:	68 94       	set
     a9c:	cc 24       	eor	r12, r12
     a9e:	c1 f8       	bld	r12, 1
     aa0:	d1 2c       	mov	r13, r1

00000aa2 <.Loc.12>:
            PORTB |= (1 << PB7);
            PORTB |= (1 << PB5);
        }
        if (!(KNOP_3_PIN & (1 << KNOP_3)) && pressed == 0)                              // knop 3 --> keren L
        {
            programma = keren_L;
     aa2:	0f 2e       	mov	r0, r31
     aa4:	f3 e0       	ldi	r31, 0x03	; 3
     aa6:	ef 2e       	mov	r14, r31
     aa8:	f0 2d       	mov	r31, r0
     aaa:	f1 2c       	mov	r15, r1

00000aac <.Loc.13>:
            PORTB |= (1 << PB7);
            PORTB |= (1 << PB6);
        }
        if (!(KNOP_4_PIN & (1 << KNOP_4)) && pressed == 0)                              // knop 4 --> pakket detectie
        {
            programma = pakketTellen;
     aac:	04 e0       	ldi	r16, 0x04	; 4
     aae:	10 e0       	ldi	r17, 0x00	; 0

00000ab0 <.Loc.14>:
            pressed = 1;
            _delay_ms(5);
        }
        if (!(KNOP_5_PIN & (1 << KNOP_5)) && pressed == 0)                              // knop 5 --> parkour
        {
            programma= parkour;
     ab0:	d5 e0       	ldi	r29, 0x05	; 5
     ab2:	c0 e0       	ldi	r28, 0x00	; 0
     ab4:	b0 e0       	ldi	r27, 0x00	; 0
     ab6:	a0 e0       	ldi	r26, 0x00	; 0
     ab8:	07 c0       	rjmp	.+14     	; 0xac8 <.L11>

00000aba <.L9>:
        }
        if (!(KNOP_6_PIN & (1 << KNOP_6)) && !(programma == startUp))      // knop 6 --> start programma
        {
            keuzeGemaakt = 1;
        }
        if (((KNOP_1_PIN & (1 << KNOP_1))||(KNOP_2_PIN & (1 << KNOP_2))||(KNOP_3_PIN & (1 << KNOP_3))||(KNOP_4_PIN & (1 << KNOP_4))||(KNOP_5_PIN & (1 << KNOP_5))) && pressed == 1)
     aba:	21 30       	cpi	r18, 0x01	; 1
     abc:	31 05       	cpc	r19, r1
     abe:	09 f4       	brne	.+2      	; 0xac2 <.L10>

00000ac0 <L0^A>:
     ac0:	6e c0       	rjmp	.+220    	; 0xb9e <.L14>

00000ac2 <.L10>:
    while (keuzeGemaakt == 0)
     ac2:	45 2b       	or	r20, r21
     ac4:	09 f0       	breq	.+2      	; 0xac8 <.L11>

00000ac6 <L0^A>:
     ac6:	74 c0       	rjmp	.+232    	; 0xbb0 <.L15>

00000ac8 <.L11>:
        if (!(KNOP_1_PIN & (1 << KNOP_1)) && pressed == 0)                              // knop 1 --> rechtdoor
     ac8:	00 99       	sbic	0x00, 0	; 0
     aca:	10 c0       	rjmp	.+32     	; 0xaec <.L2>

00000acc <.Loc.19>:
     acc:	21 15       	cp	r18, r1
     ace:	31 05       	cpc	r19, r1
     ad0:	69 f4       	brne	.+26     	; 0xaec <.L2>

00000ad2 <.LBB14>:
	#else
		//round up by default
		__ticks_dc = (uint32_t)(ceil(fabs(__tmp)));
	#endif

	__builtin_avr_delay_cycles(__ticks_dc);
     ad2:	8f e1       	ldi	r24, 0x1F	; 31
     ad4:	9e e4       	ldi	r25, 0x4E	; 78

00000ad6 <.L1^B1>:
     ad6:	01 97       	sbiw	r24, 0x01	; 1
     ad8:	f1 f7       	brne	.-4      	; 0xad6 <.L1^B1>
     ada:	00 c0       	rjmp	.+0      	; 0xadc <L0^A>

00000adc <L0^A>:
	...

00000ade <.LBE14>:
            PORTB &= ~(1 << PB7);
     ade:	2f 98       	cbi	0x05, 7	; 5

00000ae0 <.Loc.33>:
            PORTB |= (1 << PB6);
     ae0:	2e 9a       	sbi	0x05, 6	; 5

00000ae2 <.Loc.35>:
            PORTB |= (1 << PB5);
     ae2:	2d 9a       	sbi	0x05, 5	; 5

00000ae4 <.Loc.37>:
            pressed = 1;
     ae4:	27 2f       	mov	r18, r23
     ae6:	36 2f       	mov	r19, r22

00000ae8 <.Loc.38>:
            programma = rechtdoor;
     ae8:	87 2f       	mov	r24, r23
     aea:	96 2f       	mov	r25, r22

00000aec <.L2>:
        if (!(KNOP_2_PIN & (1 << KNOP_2)) && pressed == 0)                              // knop 2 --> keren R
     aec:	01 99       	sbic	0x00, 1	; 0
     aee:	10 c0       	rjmp	.+32     	; 0xb10 <.L3>

00000af0 <.Loc.41>:
     af0:	21 15       	cp	r18, r1
     af2:	31 05       	cpc	r19, r1
     af4:	69 f4       	brne	.+26     	; 0xb10 <.L3>

00000af6 <.LBB16>:
     af6:	ef e1       	ldi	r30, 0x1F	; 31
     af8:	fe e4       	ldi	r31, 0x4E	; 78

00000afa <.L1^B2>:
     afa:	31 97       	sbiw	r30, 0x01	; 1
     afc:	f1 f7       	brne	.-4      	; 0xafa <.L1^B2>
     afe:	00 c0       	rjmp	.+0      	; 0xb00 <L0^A>

00000b00 <L0^A>:
	...

00000b02 <.LBE16>:
            PORTB &= ~(1 << PB6);
     b02:	2e 98       	cbi	0x05, 6	; 5

00000b04 <.Loc.55>:
            PORTB |= (1 << PB7);
     b04:	2f 9a       	sbi	0x05, 7	; 5

00000b06 <.Loc.57>:
            PORTB |= (1 << PB5);
     b06:	2d 9a       	sbi	0x05, 5	; 5

00000b08 <.Loc.59>:
            pressed = 1;
     b08:	27 2f       	mov	r18, r23
     b0a:	36 2f       	mov	r19, r22

00000b0c <.Loc.60>:
            programma = keren_R;
     b0c:	8c 2d       	mov	r24, r12
     b0e:	9d 2d       	mov	r25, r13

00000b10 <.L3>:
        if (!(KNOP_3_PIN & (1 << KNOP_3)) && pressed == 0)                              // knop 3 --> keren L
     b10:	02 99       	sbic	0x00, 2	; 0
     b12:	10 c0       	rjmp	.+32     	; 0xb34 <.L4>

00000b14 <.Loc.63>:
     b14:	21 15       	cp	r18, r1
     b16:	31 05       	cpc	r19, r1
     b18:	69 f4       	brne	.+26     	; 0xb34 <.L4>

00000b1a <.LBB18>:
     b1a:	8f e1       	ldi	r24, 0x1F	; 31
     b1c:	9e e4       	ldi	r25, 0x4E	; 78

00000b1e <.L1^B3>:
     b1e:	01 97       	sbiw	r24, 0x01	; 1
     b20:	f1 f7       	brne	.-4      	; 0xb1e <.L1^B3>
     b22:	00 c0       	rjmp	.+0      	; 0xb24 <L0^A>

00000b24 <L0^A>:
	...

00000b26 <.LBE18>:
            PORTB &= ~(1 << PB5);
     b26:	2d 98       	cbi	0x05, 5	; 5

00000b28 <.Loc.77>:
            PORTB |= (1 << PB7);
     b28:	2f 9a       	sbi	0x05, 7	; 5

00000b2a <.Loc.79>:
            PORTB |= (1 << PB6);
     b2a:	2e 9a       	sbi	0x05, 6	; 5

00000b2c <.Loc.81>:
            pressed = 1;
     b2c:	27 2f       	mov	r18, r23
     b2e:	36 2f       	mov	r19, r22

00000b30 <.Loc.82>:
            programma = keren_L;
     b30:	8e 2d       	mov	r24, r14
     b32:	9f 2d       	mov	r25, r15

00000b34 <.L4>:
        if (!(KNOP_4_PIN & (1 << KNOP_4)) && pressed == 0)                              // knop 4 --> pakket detectie
     b34:	03 99       	sbic	0x00, 3	; 0
     b36:	0d c0       	rjmp	.+26     	; 0xb52 <.L5>

00000b38 <.Loc.85>:
     b38:	21 15       	cp	r18, r1
     b3a:	31 05       	cpc	r19, r1
     b3c:	51 f4       	brne	.+20     	; 0xb52 <.L5>

00000b3e <.LBB20>:
     b3e:	ef e1       	ldi	r30, 0x1F	; 31
     b40:	fe e4       	ldi	r31, 0x4E	; 78

00000b42 <.L1^B4>:
     b42:	31 97       	sbiw	r30, 0x01	; 1
     b44:	f1 f7       	brne	.-4      	; 0xb42 <.L1^B4>
     b46:	00 c0       	rjmp	.+0      	; 0xb48 <L0^A>

00000b48 <L0^A>:
	...

00000b4a <.LBE20>:
            pressed = 1;
     b4a:	27 2f       	mov	r18, r23
     b4c:	36 2f       	mov	r19, r22

00000b4e <.Loc.97>:
            programma = pakketTellen;
     b4e:	80 2f       	mov	r24, r16
     b50:	91 2f       	mov	r25, r17

00000b52 <.L5>:
        if (!(KNOP_5_PIN & (1 << KNOP_5)) && pressed == 0)                              // knop 5 --> parkour
     b52:	04 99       	sbic	0x00, 4	; 0
     b54:	0d c0       	rjmp	.+26     	; 0xb70 <.L6>

00000b56 <.Loc.100>:
     b56:	21 15       	cp	r18, r1
     b58:	31 05       	cpc	r19, r1
     b5a:	51 f4       	brne	.+20     	; 0xb70 <.L6>

00000b5c <.LBB22>:
     b5c:	8f e1       	ldi	r24, 0x1F	; 31
     b5e:	9e e4       	ldi	r25, 0x4E	; 78

00000b60 <.L1^B5>:
     b60:	01 97       	sbiw	r24, 0x01	; 1
     b62:	f1 f7       	brne	.-4      	; 0xb60 <.L1^B5>
     b64:	00 c0       	rjmp	.+0      	; 0xb66 <L0^A>

00000b66 <L0^A>:
	...

00000b68 <.LBE22>:
            pressed = 1;
     b68:	27 2f       	mov	r18, r23
     b6a:	36 2f       	mov	r19, r22

00000b6c <.Loc.112>:
            programma= parkour;
     b6c:	8d 2f       	mov	r24, r29
     b6e:	9c 2f       	mov	r25, r28

00000b70 <.L6>:
        if (!(KNOP_6_PIN & (1 << KNOP_6)) && !(programma == startUp))      // knop 6 --> start programma
     b70:	4b 2f       	mov	r20, r27
     b72:	5a 2f       	mov	r21, r26

00000b74 <.Loc.114>:
     b74:	05 99       	sbic	0x00, 5	; 0
     b76:	08 c0       	rjmp	.+16     	; 0xb88 <.L7>

00000b78 <.Loc.115>:
     b78:	f7 2f       	mov	r31, r23
     b7a:	e6 2f       	mov	r30, r22
     b7c:	00 97       	sbiw	r24, 0x00	; 0
     b7e:	11 f4       	brne	.+4      	; 0xb84 <.L8>
     b80:	fb 2f       	mov	r31, r27
     b82:	ea 2f       	mov	r30, r26

00000b84 <.L8>:
     b84:	4f 2f       	mov	r20, r31
     b86:	5e 2f       	mov	r21, r30

00000b88 <.L7>:
        if (((KNOP_1_PIN & (1 << KNOP_1))||(KNOP_2_PIN & (1 << KNOP_2))||(KNOP_3_PIN & (1 << KNOP_3))||(KNOP_4_PIN & (1 << KNOP_4))||(KNOP_5_PIN & (1 << KNOP_5))) && pressed == 1)
     b88:	00 99       	sbic	0x00, 0	; 0
     b8a:	97 cf       	rjmp	.-210    	; 0xaba <.L9>

00000b8c <.Loc.118>:
     b8c:	01 99       	sbic	0x00, 1	; 0
     b8e:	95 cf       	rjmp	.-214    	; 0xaba <.L9>

00000b90 <.Loc.119>:
     b90:	02 99       	sbic	0x00, 2	; 0
     b92:	93 cf       	rjmp	.-218    	; 0xaba <.L9>

00000b94 <.Loc.120>:
     b94:	03 99       	sbic	0x00, 3	; 0
     b96:	91 cf       	rjmp	.-222    	; 0xaba <.L9>

00000b98 <.Loc.121>:
     b98:	04 9b       	sbis	0x00, 4	; 0
     b9a:	93 cf       	rjmp	.-218    	; 0xac2 <.L10>
     b9c:	8e cf       	rjmp	.-228    	; 0xaba <.L9>

00000b9e <.L14>:
     b9e:	ef e1       	ldi	r30, 0x1F	; 31
     ba0:	fe e4       	ldi	r31, 0x4E	; 78

00000ba2 <.L1^B6>:
     ba2:	31 97       	sbiw	r30, 0x01	; 1
     ba4:	f1 f7       	brne	.-4      	; 0xba2 <.L1^B6>
     ba6:	00 c0       	rjmp	.+0      	; 0xba8 <L0^A>

00000ba8 <L0^A>:
	...

00000baa <.Loc.131>:
        {
            pressed = 0;
     baa:	2b 2f       	mov	r18, r27
     bac:	3a 2f       	mov	r19, r26

00000bae <.Loc.132>:
	}
	else
		__ticks = (uint16_t)__tmp;
	_delay_loop_2(__ticks);
#endif
}
     bae:	89 cf       	rjmp	.-238    	; 0xac2 <.L10>

00000bb0 <.L15>:
            _delay_ms(5);
        }
    }
    return programma;
}
     bb0:	df 91       	pop	r29
     bb2:	cf 91       	pop	r28
     bb4:	1f 91       	pop	r17
     bb6:	0f 91       	pop	r16
     bb8:	ff 90       	pop	r15
     bba:	ef 90       	pop	r14
     bbc:	df 90       	pop	r13
     bbe:	cf 90       	pop	r12
     bc0:	08 95       	ret

00000bc2 <ultrasoonAfstand_R>:
#include "navigatie_lib.h"
#include "motor_lib.h"
#include "programma_keuze.h"

uint16_t ultrasoonAfstand_R(void)
{
     bc2:	cf 93       	push	r28
     bc4:	df 93       	push	r29
     bc6:	00 d0       	rcall	.+0      	; 0xbc8 <L0^A>

00000bc8 <L0^A>:
     bc8:	0f 92       	push	r0
     bca:	cd b7       	in	r28, 0x3d	; 61
     bcc:	de b7       	in	r29, 0x3e	; 62

00000bce <.Loc.1>:
    // 1. Trigger
    ULTRASOON_TRIGGER_R_PORT &= ~(1 << ULTRASOON_TRIGGER_R);
     bce:	46 98       	cbi	0x08, 6	; 8

00000bd0 <.Loc.3>:
    ULTRASOON_TRIGGER_R_PORT |= (1 << ULTRASOON_TRIGGER_R); _delay_us(10);
     bd0:	46 9a       	sbi	0x08, 6	; 8

00000bd2 <.LBB6>:
	#else
		//round up by default
		__ticks_dc = (uint32_t)(ceil(fabs(__tmp)));
	#endif

	__builtin_avr_delay_cycles(__ticks_dc);
     bd2:	25 e3       	ldi	r18, 0x35	; 53

00000bd4 <.L1^B1>:
     bd4:	2a 95       	dec	r18
     bd6:	f1 f7       	brne	.-4      	; 0xbd4 <.L1^B1>
	...

00000bda <.LBE6>:
    ULTRASOON_TRIGGER_R_PORT &= ~(1 << ULTRASOON_TRIGGER_R);
     bda:	46 98       	cbi	0x08, 6	; 8

00000bdc <.Loc.16>:

    // 2. Wacht op echo
    uint32_t timeout = 10000;
     bdc:	80 e1       	ldi	r24, 0x10	; 16
     bde:	97 e2       	ldi	r25, 0x27	; 39
     be0:	a0 e0       	ldi	r26, 0x00	; 0
     be2:	b0 e0       	ldi	r27, 0x00	; 0

00000be4 <.L3>:
    while (!(ULTRASOON_ECHO_R_PIN & (1 << ULTRASOON_ECHO_R)) && timeout--);
     be4:	37 99       	sbic	0x06, 7	; 6
     be6:	05 c0       	rjmp	.+10     	; 0xbf2 <.L2>

00000be8 <.Loc.20>:
     be8:	01 97       	sbiw	r24, 0x01	; 1
     bea:	a1 09       	sbc	r26, r1
     bec:	b1 09       	sbc	r27, r1
     bee:	d0 f7       	brcc	.-12     	; 0xbe4 <.L3>

00000bf0 <.Loc.21>:
     bf0:	05 c0       	rjmp	.+10     	; 0xbfc <.L4>

00000bf2 <.L2>:
    if (timeout == 0) return 999;
     bf2:	89 2b       	or	r24, r25
     bf4:	8a 2b       	or	r24, r26
     bf6:	8b 2b       	or	r24, r27
     bf8:	09 f4       	brne	.+2      	; 0xbfc <.L4>

00000bfa <L0^A>:
     bfa:	42 c0       	rjmp	.+132    	; 0xc80 <.L8>

00000bfc <.L4>:

    // 3. Timer starten (prescaler 8)
    TCNT1 = 0;
     bfc:	10 92 85 00 	sts	0x0085, r1	; 0x800085 <__TEXT_REGION_LENGTH__+0x700085>
     c00:	10 92 84 00 	sts	0x0084, r1	; 0x800084 <__TEXT_REGION_LENGTH__+0x700084>

00000c04 <.Loc.26>:
    TCCR1B = (1 << CS11);
     c04:	82 e0       	ldi	r24, 0x02	; 2
     c06:	80 93 81 00 	sts	0x0081, r24	; 0x800081 <__TEXT_REGION_LENGTH__+0x700081>

00000c0a <.Loc.28>:

    // 4. Wachten op einde echo
    while (ULTRASOON_ECHO_R_PIN & (1 << ULTRASOON_ECHO_R) && TCNT1 < OVERFLOW);
     c0a:	e4 e8       	ldi	r30, 0x84	; 132
     c0c:	f0 e0       	ldi	r31, 0x00	; 0

00000c0e <.L7>:
     c0e:	37 9b       	sbis	0x06, 7	; 6
     c10:	05 c0       	rjmp	.+10     	; 0xc1c <.L6>

00000c12 <.Loc.31>:
     c12:	80 81       	ld	r24, Z
     c14:	91 81       	ldd	r25, Z+1	; 0x01

00000c16 <.Loc.32>:
     c16:	80 34       	cpi	r24, 0x40	; 64
     c18:	9c 49       	sbci	r25, 0x9C	; 156
     c1a:	c8 f3       	brcs	.-14     	; 0xc0e <.L7>

00000c1c <.L6>:
    TCCR1B = 0;
     c1c:	10 92 81 00 	sts	0x0081, r1	; 0x800081 <__TEXT_REGION_LENGTH__+0x700081>

00000c20 <.Loc.35>:

    // 5. Bereken afstand
    uint16_t distance = TCNT1 * 0.008575;
     c20:	80 91 84 00 	lds	r24, 0x0084	; 0x800084 <__TEXT_REGION_LENGTH__+0x700084>
     c24:	90 91 85 00 	lds	r25, 0x0085	; 0x800085 <__TEXT_REGION_LENGTH__+0x700085>

00000c28 <.Loc.37>:
     c28:	9c 01       	movw	r18, r24
     c2a:	40 e0       	ldi	r20, 0x00	; 0
     c2c:	50 e0       	ldi	r21, 0x00	; 0
     c2e:	29 83       	std	Y+1, r18	; 0x01
     c30:	3a 83       	std	Y+2, r19	; 0x02
     c32:	4b 83       	std	Y+3, r20	; 0x03
     c34:	5c 83       	std	Y+4, r21	; 0x04
     c36:	ca 01       	movw	r24, r20
     c38:	b9 01       	movw	r22, r18
     c3a:	0e 94 fb 08 	call	0x11f6	; 0x11f6 <__floatunsisf>

00000c3e <.LVL6>:
     c3e:	28 e2       	ldi	r18, 0x28	; 40
     c40:	3e e7       	ldi	r19, 0x7E	; 126
     c42:	4c e0       	ldi	r20, 0x0C	; 12
     c44:	5c e3       	ldi	r21, 0x3C	; 60
     c46:	69 83       	std	Y+1, r22	; 0x01
     c48:	7a 83       	std	Y+2, r23	; 0x02
     c4a:	8b 83       	std	Y+3, r24	; 0x03
     c4c:	9c 83       	std	Y+4, r25	; 0x04
     c4e:	69 81       	ldd	r22, Y+1	; 0x01
     c50:	7a 81       	ldd	r23, Y+2	; 0x02
     c52:	8b 81       	ldd	r24, Y+3	; 0x03
     c54:	9c 81       	ldd	r25, Y+4	; 0x04
     c56:	0e 94 89 09 	call	0x1312	; 0x1312 <__mulsf3>

00000c5a <.LVL7>:
     c5a:	69 83       	std	Y+1, r22	; 0x01
     c5c:	7a 83       	std	Y+2, r23	; 0x02
     c5e:	8b 83       	std	Y+3, r24	; 0x03
     c60:	9c 83       	std	Y+4, r25	; 0x04
     c62:	69 81       	ldd	r22, Y+1	; 0x01
     c64:	7a 81       	ldd	r23, Y+2	; 0x02
     c66:	8b 81       	ldd	r24, Y+3	; 0x03
     c68:	9c 81       	ldd	r25, Y+4	; 0x04
     c6a:	0e 94 cc 08 	call	0x1198	; 0x1198 <__fixunssfsi>

00000c6e <.LVL8>:
     c6e:	86 2f       	mov	r24, r22
     c70:	97 2f       	mov	r25, r23

00000c72 <.L1>:

    // 6. Return waarde
    return distance;
}
     c72:	0f 90       	pop	r0
     c74:	0f 90       	pop	r0
     c76:	0f 90       	pop	r0
     c78:	0f 90       	pop	r0
     c7a:	df 91       	pop	r29
     c7c:	cf 91       	pop	r28
     c7e:	08 95       	ret

00000c80 <.L8>:
    if (timeout == 0) return 999;
     c80:	87 ee       	ldi	r24, 0xE7	; 231
     c82:	93 e0       	ldi	r25, 0x03	; 3

00000c84 <.Loc.42>:
     c84:	f6 cf       	rjmp	.-20     	; 0xc72 <.L1>

00000c86 <ultrasoonAfstand_L>:

uint16_t ultrasoonAfstand_L(void)
{
     c86:	cf 93       	push	r28
     c88:	df 93       	push	r29
     c8a:	00 d0       	rcall	.+0      	; 0xc8c <L0^A>

00000c8c <L0^A>:
     c8c:	0f 92       	push	r0
     c8e:	cd b7       	in	r28, 0x3d	; 61
     c90:	de b7       	in	r29, 0x3e	; 62

00000c92 <.Loc.44>:
    // 1. Trigger
    ULTRASOON_TRIGGER_L_PORT &= ~(1 << ULTRASOON_TRIGGER_L); //_delay_us(2);
     c92:	17 98       	cbi	0x02, 7	; 2

00000c94 <.Loc.46>:
    ULTRASOON_TRIGGER_L_PORT |= (1 << ULTRASOON_TRIGGER_L); _delay_us(10);
     c94:	17 9a       	sbi	0x02, 7	; 2

00000c96 <.LBB8>:
     c96:	25 e3       	ldi	r18, 0x35	; 53

00000c98 <.L1^B2>:
     c98:	2a 95       	dec	r18
     c9a:	f1 f7       	brne	.-4      	; 0xc98 <.L1^B2>
	...

00000c9e <.LBE8>:
    ULTRASOON_TRIGGER_L_PORT &= ~(1 << ULTRASOON_TRIGGER_L);
     c9e:	17 98       	cbi	0x02, 7	; 2

00000ca0 <.Loc.59>:

    // 2. Wacht op start echo
    uint32_t timeout = 10000;
     ca0:	80 e1       	ldi	r24, 0x10	; 16
     ca2:	97 e2       	ldi	r25, 0x27	; 39
     ca4:	a0 e0       	ldi	r26, 0x00	; 0
     ca6:	b0 e0       	ldi	r27, 0x00	; 0

00000ca8 <.L13>:
    while(!(ULTRASOON_ECHO_L_PIN & (1 << ULTRASOON_ECHO_L)) && timeout--);
     ca8:	06 99       	sbic	0x00, 6	; 0
     caa:	05 c0       	rjmp	.+10     	; 0xcb6 <.L12>

00000cac <.Loc.63>:
     cac:	01 97       	sbiw	r24, 0x01	; 1
     cae:	a1 09       	sbc	r26, r1
     cb0:	b1 09       	sbc	r27, r1
     cb2:	d0 f7       	brcc	.-12     	; 0xca8 <.L13>

00000cb4 <.Loc.64>:
     cb4:	05 c0       	rjmp	.+10     	; 0xcc0 <.L14>

00000cb6 <.L12>:
    if(timeout == 0) return 999; // Foutmelding
     cb6:	89 2b       	or	r24, r25
     cb8:	8a 2b       	or	r24, r26
     cba:	8b 2b       	or	r24, r27
     cbc:	09 f4       	brne	.+2      	; 0xcc0 <.L14>

00000cbe <L0^A>:
     cbe:	42 c0       	rjmp	.+132    	; 0xd44 <.L18>

00000cc0 <.L14>:

    // 3. Start timer (Prescaler 8 -> 1 tick = 0.5us)
    TCNT1 = 0;
     cc0:	10 92 85 00 	sts	0x0085, r1	; 0x800085 <__TEXT_REGION_LENGTH__+0x700085>
     cc4:	10 92 84 00 	sts	0x0084, r1	; 0x800084 <__TEXT_REGION_LENGTH__+0x700084>

00000cc8 <.Loc.69>:
    TCCR1B = (1 << CS11);
     cc8:	82 e0       	ldi	r24, 0x02	; 2
     cca:	80 93 81 00 	sts	0x0081, r24	; 0x800081 <__TEXT_REGION_LENGTH__+0x700081>

00000cce <.Loc.71>:

    // 4. Wacht op einde echo
    while((ULTRASOON_ECHO_L_PIN & (1 << ULTRASOON_ECHO_L)) && TCNT1 < OVERFLOW);
     cce:	e4 e8       	ldi	r30, 0x84	; 132
     cd0:	f0 e0       	ldi	r31, 0x00	; 0

00000cd2 <.L17>:
     cd2:	06 9b       	sbis	0x00, 6	; 0
     cd4:	05 c0       	rjmp	.+10     	; 0xce0 <.L16>

00000cd6 <.Loc.74>:
     cd6:	80 81       	ld	r24, Z
     cd8:	91 81       	ldd	r25, Z+1	; 0x01

00000cda <.Loc.75>:
     cda:	80 34       	cpi	r24, 0x40	; 64
     cdc:	9c 49       	sbci	r25, 0x9C	; 156
     cde:	c8 f3       	brcs	.-14     	; 0xcd2 <.L17>

00000ce0 <.L16>:
    TCCR1B = 0; // Stop timer
     ce0:	10 92 81 00 	sts	0x0081, r1	; 0x800081 <__TEXT_REGION_LENGTH__+0x700081>

00000ce4 <.Loc.78>:

    // 5. Bereken: ticks * 0.5us * 0.0343 / 2
    uint16_t distance = TCNT1 * 0.008575;
     ce4:	80 91 84 00 	lds	r24, 0x0084	; 0x800084 <__TEXT_REGION_LENGTH__+0x700084>
     ce8:	90 91 85 00 	lds	r25, 0x0085	; 0x800085 <__TEXT_REGION_LENGTH__+0x700085>

00000cec <.Loc.80>:
     cec:	9c 01       	movw	r18, r24
     cee:	40 e0       	ldi	r20, 0x00	; 0
     cf0:	50 e0       	ldi	r21, 0x00	; 0
     cf2:	29 83       	std	Y+1, r18	; 0x01
     cf4:	3a 83       	std	Y+2, r19	; 0x02
     cf6:	4b 83       	std	Y+3, r20	; 0x03
     cf8:	5c 83       	std	Y+4, r21	; 0x04
     cfa:	ca 01       	movw	r24, r20
     cfc:	b9 01       	movw	r22, r18
     cfe:	0e 94 fb 08 	call	0x11f6	; 0x11f6 <__floatunsisf>

00000d02 <.LVL18>:
     d02:	28 e2       	ldi	r18, 0x28	; 40
     d04:	3e e7       	ldi	r19, 0x7E	; 126
     d06:	4c e0       	ldi	r20, 0x0C	; 12
     d08:	5c e3       	ldi	r21, 0x3C	; 60
     d0a:	69 83       	std	Y+1, r22	; 0x01
     d0c:	7a 83       	std	Y+2, r23	; 0x02
     d0e:	8b 83       	std	Y+3, r24	; 0x03
     d10:	9c 83       	std	Y+4, r25	; 0x04
     d12:	69 81       	ldd	r22, Y+1	; 0x01
     d14:	7a 81       	ldd	r23, Y+2	; 0x02
     d16:	8b 81       	ldd	r24, Y+3	; 0x03
     d18:	9c 81       	ldd	r25, Y+4	; 0x04
     d1a:	0e 94 89 09 	call	0x1312	; 0x1312 <__mulsf3>

00000d1e <.LVL19>:
     d1e:	69 83       	std	Y+1, r22	; 0x01
     d20:	7a 83       	std	Y+2, r23	; 0x02
     d22:	8b 83       	std	Y+3, r24	; 0x03
     d24:	9c 83       	std	Y+4, r25	; 0x04
     d26:	69 81       	ldd	r22, Y+1	; 0x01
     d28:	7a 81       	ldd	r23, Y+2	; 0x02
     d2a:	8b 81       	ldd	r24, Y+3	; 0x03
     d2c:	9c 81       	ldd	r25, Y+4	; 0x04
     d2e:	0e 94 cc 08 	call	0x1198	; 0x1198 <__fixunssfsi>

00000d32 <.LVL20>:
     d32:	86 2f       	mov	r24, r22
     d34:	97 2f       	mov	r25, r23

00000d36 <.L11>:

    // 6. Return waarde
    return distance;
}
     d36:	0f 90       	pop	r0
     d38:	0f 90       	pop	r0
     d3a:	0f 90       	pop	r0
     d3c:	0f 90       	pop	r0
     d3e:	df 91       	pop	r29
     d40:	cf 91       	pop	r28
     d42:	08 95       	ret

00000d44 <.L18>:
    if(timeout == 0) return 999; // Foutmelding
     d44:	87 ee       	ldi	r24, 0xE7	; 231
     d46:	93 e0       	ldi	r25, 0x03	; 3

00000d48 <.Loc.85>:
     d48:	f6 cf       	rjmp	.-20     	; 0xd36 <.L11>

00000d4a <send_data>:

    PORTG |= (1 << LCHCLK_BIT);       // Latch pulse
    PORTG &= ~(1 << LCHCLK_BIT);
}

void send_data(unsigned char data) {
     d4a:	28 e0       	ldi	r18, 0x08	; 8
     d4c:	30 e0       	ldi	r19, 0x00	; 0

00000d4e <.Loc.5>:
    for (unsigned i = 0; i < 8; i++) {
        if (data & 0x80) PORTH |= (1 << SDI_BIT); // MSB first voor dit shield
        else PORTH &= ~(1 << SDI_BIT);
     d4e:	e2 e0       	ldi	r30, 0x02	; 2
     d50:	f1 e0       	ldi	r31, 0x01	; 1
     d52:	0f c0       	rjmp	.+30     	; 0xd72 <.L4>

00000d54 <.L2>:
     d54:	90 81       	ld	r25, Z
     d56:	9f 7d       	andi	r25, 0xDF	; 223
     d58:	90 83       	st	Z, r25

00000d5a <.L3>:

        data <<= 1;
     d5a:	88 0f       	add	r24, r24

00000d5c <.Loc.10>:
        PORTH |= (1 << SFTCLK_BIT); // Clock pulse
     d5c:	90 81       	ld	r25, Z

00000d5e <.Loc.11>:
     d5e:	90 61       	ori	r25, 0x10	; 16
     d60:	90 83       	st	Z, r25

00000d62 <.Loc.12>:
        PORTH &= ~(1 << SFTCLK_BIT);
     d62:	90 81       	ld	r25, Z
     d64:	9f 7e       	andi	r25, 0xEF	; 239
     d66:	90 83       	st	Z, r25

00000d68 <.Loc.14>:
    for (unsigned i = 0; i < 8; i++) {
     d68:	21 50       	subi	r18, 0x01	; 1
     d6a:	31 09       	sbc	r19, r1

00000d6c <.Loc.16>:
     d6c:	21 15       	cp	r18, r1
     d6e:	31 05       	cpc	r19, r1
     d70:	31 f0       	breq	.+12     	; 0xd7e <.L6>

00000d72 <.L4>:
        if (data & 0x80) PORTH |= (1 << SDI_BIT); // MSB first voor dit shield
     d72:	88 23       	and	r24, r24
     d74:	7c f7       	brge	.-34     	; 0xd54 <.L2>

00000d76 <.Loc.19>:
     d76:	90 81       	ld	r25, Z

00000d78 <.Loc.20>:
     d78:	90 62       	ori	r25, 0x20	; 32
     d7a:	90 83       	st	Z, r25
     d7c:	ee cf       	rjmp	.-36     	; 0xd5a <.L3>

00000d7e <.L6>:
    }
}
     d7e:	08 95       	ret

00000d80 <display_segment>:
void display_segment(unsigned char segments, int display_nummer) {
     d80:	cf 93       	push	r28
     d82:	c6 2f       	mov	r28, r22

00000d84 <.Loc.25>:
    send_data(segments);              // Welke segmenten aan
     d84:	0e 94 a5 06 	call	0xd4a	; 0xd4a <send_data>

00000d88 <.LVL7>:
    send_data(1 << display_nummer);   // Welk cijfer aan (positie)
     d88:	81 e0       	ldi	r24, 0x01	; 1
     d8a:	01 c0       	rjmp	.+2      	; 0xd8e <.L2^B1>

00000d8c <.L1^B1>:
     d8c:	88 0f       	add	r24, r24

00000d8e <.L2^B1>:
     d8e:	ca 95       	dec	r28
     d90:	ea f7       	brpl	.-6      	; 0xd8c <.L1^B1>
     d92:	0e 94 a5 06 	call	0xd4a	; 0xd4a <send_data>

00000d96 <.LVL8>:
    PORTG |= (1 << LCHCLK_BIT);       // Latch pulse
     d96:	a5 9a       	sbi	0x14, 5	; 20

00000d98 <.Loc.29>:
    PORTG &= ~(1 << LCHCLK_BIT);
     d98:	a5 98       	cbi	0x14, 5	; 20

00000d9a <.Loc.31>:
}
     d9a:	cf 91       	pop	r28
     d9c:	08 95       	ret

00000d9e <print_waarde>:
{
     d9e:	cf 93       	push	r28
     da0:	df 93       	push	r29
     da2:	c8 2f       	mov	r28, r24
     da4:	d9 2f       	mov	r29, r25

00000da6 <.Loc.34>:
    display_segment(segmentcodes[temp % 10], 3); // Eenheden
     da6:	9e 01       	movw	r18, r28
     da8:	ad ec       	ldi	r26, 0xCD	; 205
     daa:	bc ec       	ldi	r27, 0xCC	; 204
     dac:	0e 94 d7 07 	call	0xfae	; 0xfae <__umulhisi3>

00000db0 <.Loc.37>:
     db0:	9c 01       	movw	r18, r24
     db2:	36 95       	lsr	r19
     db4:	27 95       	ror	r18
     db6:	36 95       	lsr	r19
     db8:	27 95       	ror	r18
     dba:	36 95       	lsr	r19
     dbc:	27 95       	ror	r18
     dbe:	c9 01       	movw	r24, r18
     dc0:	88 0f       	add	r24, r24
     dc2:	99 1f       	adc	r25, r25
     dc4:	88 0f       	add	r24, r24
     dc6:	99 1f       	adc	r25, r25
     dc8:	82 0f       	add	r24, r18
     dca:	93 1f       	adc	r25, r19
     dcc:	88 0f       	add	r24, r24
     dce:	99 1f       	adc	r25, r25
     dd0:	fe 01       	movw	r30, r28
     dd2:	e8 1b       	sub	r30, r24
     dd4:	f9 0b       	sbc	r31, r25

00000dd6 <.Loc.38>:
     dd6:	e6 5f       	subi	r30, 0xF6	; 246
     dd8:	fd 4f       	sbci	r31, 0xFD	; 253
     dda:	63 e0       	ldi	r22, 0x03	; 3
     ddc:	70 e0       	ldi	r23, 0x00	; 0
     dde:	80 81       	ld	r24, Z
     de0:	0e 94 c0 06 	call	0xd80	; 0xd80 <display_segment>

00000de4 <.LBB20>:
     de4:	8f e1       	ldi	r24, 0x1F	; 31
     de6:	9e e4       	ldi	r25, 0x4E	; 78

00000de8 <.L1^B2>:
     de8:	01 97       	sbiw	r24, 0x01	; 1
     dea:	f1 f7       	brne	.-4      	; 0xde8 <.L1^B2>
     dec:	00 c0       	rjmp	.+0      	; 0xdee <L0^A>

00000dee <L0^A>:
	...

00000df0 <.LBE20>:
    temp /= 10;
     df0:	9e 01       	movw	r18, r28
     df2:	ad ec       	ldi	r26, 0xCD	; 205
     df4:	bc ec       	ldi	r27, 0xCC	; 204
     df6:	0e 94 d7 07 	call	0xfae	; 0xfae <__umulhisi3>
     dfa:	ec 01       	movw	r28, r24
     dfc:	d6 95       	lsr	r29
     dfe:	c7 95       	ror	r28
     e00:	d6 95       	lsr	r29
     e02:	c7 95       	ror	r28
     e04:	d6 95       	lsr	r29
     e06:	c7 95       	ror	r28

00000e08 <.Loc.50>:
    display_segment(segmentcodes[temp % 10], 2); // Tientallen
     e08:	9e 01       	movw	r18, r28
     e0a:	0e 94 d7 07 	call	0xfae	; 0xfae <__umulhisi3>
     e0e:	9c 01       	movw	r18, r24
     e10:	36 95       	lsr	r19
     e12:	27 95       	ror	r18
     e14:	36 95       	lsr	r19
     e16:	27 95       	ror	r18
     e18:	36 95       	lsr	r19
     e1a:	27 95       	ror	r18
     e1c:	c9 01       	movw	r24, r18
     e1e:	88 0f       	add	r24, r24
     e20:	99 1f       	adc	r25, r25
     e22:	88 0f       	add	r24, r24
     e24:	99 1f       	adc	r25, r25
     e26:	82 0f       	add	r24, r18
     e28:	93 1f       	adc	r25, r19
     e2a:	88 0f       	add	r24, r24
     e2c:	99 1f       	adc	r25, r25
     e2e:	fe 01       	movw	r30, r28
     e30:	e8 1b       	sub	r30, r24
     e32:	f9 0b       	sbc	r31, r25

00000e34 <.Loc.52>:
     e34:	e6 5f       	subi	r30, 0xF6	; 246
     e36:	fd 4f       	sbci	r31, 0xFD	; 253
     e38:	62 e0       	ldi	r22, 0x02	; 2
     e3a:	70 e0       	ldi	r23, 0x00	; 0
     e3c:	80 81       	ld	r24, Z
     e3e:	0e 94 c0 06 	call	0xd80	; 0xd80 <display_segment>

00000e42 <.LBB22>:
     e42:	8f e1       	ldi	r24, 0x1F	; 31
     e44:	9e e4       	ldi	r25, 0x4E	; 78

00000e46 <.L1^B3>:
     e46:	01 97       	sbiw	r24, 0x01	; 1
     e48:	f1 f7       	brne	.-4      	; 0xe46 <.L1^B3>
     e4a:	00 c0       	rjmp	.+0      	; 0xe4c <L0^A>

00000e4c <L0^A>:
	...

00000e4e <.LBE22>:
    temp /= 10;
     e4e:	9e 01       	movw	r18, r28
     e50:	ad ec       	ldi	r26, 0xCD	; 205
     e52:	bc ec       	ldi	r27, 0xCC	; 204
     e54:	0e 94 d7 07 	call	0xfae	; 0xfae <__umulhisi3>
     e58:	ec 01       	movw	r28, r24

00000e5a <.Loc.64>:
     e5a:	d6 95       	lsr	r29
     e5c:	c7 95       	ror	r28
     e5e:	d6 95       	lsr	r29
     e60:	c7 95       	ror	r28
     e62:	d6 95       	lsr	r29
     e64:	c7 95       	ror	r28

00000e66 <.Loc.65>:
    display_segment(segmentcodes[temp % 10], 1); // Honderdtallen
     e66:	9e 01       	movw	r18, r28
     e68:	0e 94 d7 07 	call	0xfae	; 0xfae <__umulhisi3>
     e6c:	9c 01       	movw	r18, r24
     e6e:	36 95       	lsr	r19
     e70:	27 95       	ror	r18
     e72:	36 95       	lsr	r19
     e74:	27 95       	ror	r18
     e76:	36 95       	lsr	r19
     e78:	27 95       	ror	r18
     e7a:	c9 01       	movw	r24, r18
     e7c:	88 0f       	add	r24, r24
     e7e:	99 1f       	adc	r25, r25
     e80:	88 0f       	add	r24, r24
     e82:	99 1f       	adc	r25, r25
     e84:	82 0f       	add	r24, r18
     e86:	93 1f       	adc	r25, r19
     e88:	88 0f       	add	r24, r24
     e8a:	99 1f       	adc	r25, r25
     e8c:	fe 01       	movw	r30, r28
     e8e:	e8 1b       	sub	r30, r24
     e90:	f9 0b       	sbc	r31, r25

00000e92 <.Loc.67>:
     e92:	e6 5f       	subi	r30, 0xF6	; 246
     e94:	fd 4f       	sbci	r31, 0xFD	; 253
     e96:	61 e0       	ldi	r22, 0x01	; 1
     e98:	70 e0       	ldi	r23, 0x00	; 0
     e9a:	80 81       	ld	r24, Z
     e9c:	0e 94 c0 06 	call	0xd80	; 0xd80 <display_segment>

00000ea0 <.LBB24>:
     ea0:	8f e1       	ldi	r24, 0x1F	; 31
     ea2:	9e e4       	ldi	r25, 0x4E	; 78

00000ea4 <.L1^B4>:
     ea4:	01 97       	sbiw	r24, 0x01	; 1
     ea6:	f1 f7       	brne	.-4      	; 0xea4 <.L1^B4>
     ea8:	00 c0       	rjmp	.+0      	; 0xeaa <L0^A>

00000eaa <L0^A>:
	...

00000eac <.LBE24>:
    temp /= 10;
     eac:	9e 01       	movw	r18, r28
     eae:	ad ec       	ldi	r26, 0xCD	; 205
     eb0:	bc ec       	ldi	r27, 0xCC	; 204
     eb2:	0e 94 d7 07 	call	0xfae	; 0xfae <__umulhisi3>
     eb6:	ac 01       	movw	r20, r24
     eb8:	56 95       	lsr	r21
     eba:	47 95       	ror	r20
     ebc:	56 95       	lsr	r21
     ebe:	47 95       	ror	r20
     ec0:	56 95       	lsr	r21
     ec2:	47 95       	ror	r20

00000ec4 <.Loc.80>:
    display_segment(segmentcodes[temp % 10], 0); // Duizendtallen [segmentcodes[temp % 10], 0]
     ec4:	9a 01       	movw	r18, r20
     ec6:	0e 94 d7 07 	call	0xfae	; 0xfae <__umulhisi3>
     eca:	9c 01       	movw	r18, r24
     ecc:	36 95       	lsr	r19
     ece:	27 95       	ror	r18
     ed0:	36 95       	lsr	r19
     ed2:	27 95       	ror	r18
     ed4:	36 95       	lsr	r19
     ed6:	27 95       	ror	r18
     ed8:	c9 01       	movw	r24, r18
     eda:	88 0f       	add	r24, r24
     edc:	99 1f       	adc	r25, r25
     ede:	88 0f       	add	r24, r24
     ee0:	99 1f       	adc	r25, r25
     ee2:	82 0f       	add	r24, r18
     ee4:	93 1f       	adc	r25, r19
     ee6:	88 0f       	add	r24, r24
     ee8:	99 1f       	adc	r25, r25
     eea:	48 1b       	sub	r20, r24
     eec:	59 0b       	sbc	r21, r25

00000eee <.Loc.81>:
     eee:	fa 01       	movw	r30, r20
     ef0:	e6 5f       	subi	r30, 0xF6	; 246
     ef2:	fd 4f       	sbci	r31, 0xFD	; 253
     ef4:	60 e0       	ldi	r22, 0x00	; 0
     ef6:	70 e0       	ldi	r23, 0x00	; 0
     ef8:	80 81       	ld	r24, Z
     efa:	0e 94 c0 06 	call	0xd80	; 0xd80 <display_segment>

00000efe <.LBB26>:
     efe:	87 ee       	ldi	r24, 0xE7	; 231
     f00:	93 e0       	ldi	r25, 0x03	; 3

00000f02 <.L1^B5>:
     f02:	01 97       	sbiw	r24, 0x01	; 1
     f04:	f1 f7       	brne	.-4      	; 0xf02 <.L1^B5>
     f06:	00 c0       	rjmp	.+0      	; 0xf08 <L0^A>

00000f08 <L0^A>:
	...

00000f0a <.LBE26>:
}
     f0a:	df 91       	pop	r29
     f0c:	cf 91       	pop	r28

00000f0e <.Loc.92>:
     f0e:	08 95       	ret

00000f10 <print_turd>:

void print_turd(void)
{
    display_segment(0x87, 0); // Eenheden
     f10:	60 e0       	ldi	r22, 0x00	; 0
     f12:	70 e0       	ldi	r23, 0x00	; 0
     f14:	87 e8       	ldi	r24, 0x87	; 135
     f16:	0e 94 c0 06 	call	0xd80	; 0xd80 <display_segment>

00000f1a <.LBB28>:
     f1a:	87 ee       	ldi	r24, 0xE7	; 231
     f1c:	93 e0       	ldi	r25, 0x03	; 3

00000f1e <.L1^B6>:
     f1e:	01 97       	sbiw	r24, 0x01	; 1
     f20:	f1 f7       	brne	.-4      	; 0xf1e <.L1^B6>
     f22:	00 c0       	rjmp	.+0      	; 0xf24 <L0^A>

00000f24 <L0^A>:
	...

00000f26 <.LBE28>:
    _delay_us(250);

    display_segment(0xE3, 1); // Tientallen
     f26:	61 e0       	ldi	r22, 0x01	; 1
     f28:	70 e0       	ldi	r23, 0x00	; 0
     f2a:	83 ee       	ldi	r24, 0xE3	; 227
     f2c:	0e 94 c0 06 	call	0xd80	; 0xd80 <display_segment>

00000f30 <.LBB30>:
     f30:	87 ee       	ldi	r24, 0xE7	; 231
     f32:	93 e0       	ldi	r25, 0x03	; 3

00000f34 <.L1^B7>:
     f34:	01 97       	sbiw	r24, 0x01	; 1
     f36:	f1 f7       	brne	.-4      	; 0xf34 <.L1^B7>
     f38:	00 c0       	rjmp	.+0      	; 0xf3a <L0^A>

00000f3a <L0^A>:
	...

00000f3c <.LBE30>:
    _delay_us(250);

    display_segment(0xAF, 2); // Honderdtallen
     f3c:	62 e0       	ldi	r22, 0x02	; 2
     f3e:	70 e0       	ldi	r23, 0x00	; 0
     f40:	8f ea       	ldi	r24, 0xAF	; 175
     f42:	0e 94 c0 06 	call	0xd80	; 0xd80 <display_segment>

00000f46 <.LBB32>:
     f46:	87 ee       	ldi	r24, 0xE7	; 231
     f48:	93 e0       	ldi	r25, 0x03	; 3

00000f4a <.L1^B8>:
     f4a:	01 97       	sbiw	r24, 0x01	; 1
     f4c:	f1 f7       	brne	.-4      	; 0xf4a <.L1^B8>
     f4e:	00 c0       	rjmp	.+0      	; 0xf50 <L0^A>

00000f50 <L0^A>:
	...

00000f52 <.LBE32>:
    _delay_us(250);

    display_segment(0xA1, 3); // Duizendtallen [segmentcodes[temp % 10], 0]
     f52:	63 e0       	ldi	r22, 0x03	; 3
     f54:	70 e0       	ldi	r23, 0x00	; 0
     f56:	81 ea       	ldi	r24, 0xA1	; 161
     f58:	0e 94 c0 06 	call	0xd80	; 0xd80 <display_segment>

00000f5c <.LBB34>:
     f5c:	87 ee       	ldi	r24, 0xE7	; 231
     f5e:	93 e0       	ldi	r25, 0x03	; 3

00000f60 <.L1^B9>:
     f60:	01 97       	sbiw	r24, 0x01	; 1
     f62:	f1 f7       	brne	.-4      	; 0xf60 <.L1^B9>
     f64:	00 c0       	rjmp	.+0      	; 0xf66 <L0^A>

00000f66 <L0^A>:
	...

00000f68 <.LBE34>:
    _delay_us(250);
}
     f68:	08 95       	ret

00000f6a <__udivmodsi4>:
     f6a:	a1 e2       	ldi	r26, 0x21	; 33

00000f6c <.Loc.1>:
     f6c:	1a 2e       	mov	r1, r26

00000f6e <.Loc.2>:
     f6e:	aa 1b       	sub	r26, r26

00000f70 <.Loc.3>:
     f70:	bb 1b       	sub	r27, r27

00000f72 <.Loc.4>:
     f72:	fd 01       	movw	r30, r26

00000f74 <.Loc.5>:
     f74:	0d c0       	rjmp	.+26     	; 0xf90 <__udivmodsi4_ep>

00000f76 <__udivmodsi4_loop>:
     f76:	aa 1f       	adc	r26, r26

00000f78 <.Loc.7>:
     f78:	bb 1f       	adc	r27, r27

00000f7a <.Loc.8>:
     f7a:	ee 1f       	adc	r30, r30

00000f7c <.Loc.9>:
     f7c:	ff 1f       	adc	r31, r31

00000f7e <.Loc.10>:
     f7e:	a2 17       	cp	r26, r18

00000f80 <.Loc.11>:
     f80:	b3 07       	cpc	r27, r19

00000f82 <.Loc.12>:
     f82:	e4 07       	cpc	r30, r20

00000f84 <.Loc.13>:
     f84:	f5 07       	cpc	r31, r21

00000f86 <.Loc.14>:
     f86:	20 f0       	brcs	.+8      	; 0xf90 <__udivmodsi4_ep>

00000f88 <.Loc.15>:
     f88:	a2 1b       	sub	r26, r18

00000f8a <.Loc.16>:
     f8a:	b3 0b       	sbc	r27, r19

00000f8c <.Loc.17>:
     f8c:	e4 0b       	sbc	r30, r20

00000f8e <.Loc.18>:
     f8e:	f5 0b       	sbc	r31, r21

00000f90 <__udivmodsi4_ep>:
     f90:	66 1f       	adc	r22, r22

00000f92 <.Loc.20>:
     f92:	77 1f       	adc	r23, r23

00000f94 <.Loc.21>:
     f94:	88 1f       	adc	r24, r24

00000f96 <.Loc.22>:
     f96:	99 1f       	adc	r25, r25

00000f98 <.Loc.23>:
     f98:	1a 94       	dec	r1

00000f9a <.Loc.24>:
     f9a:	69 f7       	brne	.-38     	; 0xf76 <__udivmodsi4_loop>

00000f9c <.Loc.25>:
     f9c:	60 95       	com	r22

00000f9e <.Loc.26>:
     f9e:	70 95       	com	r23

00000fa0 <.Loc.27>:
     fa0:	80 95       	com	r24

00000fa2 <.Loc.28>:
     fa2:	90 95       	com	r25

00000fa4 <.Loc.29>:
     fa4:	9b 01       	movw	r18, r22

00000fa6 <.Loc.30>:
     fa6:	ac 01       	movw	r20, r24

00000fa8 <.Loc.31>:
     fa8:	bd 01       	movw	r22, r26

00000faa <.Loc.32>:
     faa:	cf 01       	movw	r24, r30

00000fac <.Loc.33>:
     fac:	08 95       	ret

00000fae <__umulhisi3>:
     fae:	a2 9f       	mul	r26, r18

00000fb0 <.Loc.1>:
     fb0:	b0 01       	movw	r22, r0

00000fb2 <.Loc.2>:
     fb2:	b3 9f       	mul	r27, r19

00000fb4 <.Loc.3>:
     fb4:	c0 01       	movw	r24, r0

00000fb6 <.Loc.4>:
     fb6:	a3 9f       	mul	r26, r19

00000fb8 <.Loc.5>:
     fb8:	70 0d       	add	r23, r0

00000fba <.Loc.6>:
     fba:	81 1d       	adc	r24, r1

00000fbc <.Loc.7>:
     fbc:	11 24       	eor	r1, r1

00000fbe <.Loc.8>:
     fbe:	91 1d       	adc	r25, r1

00000fc0 <.Loc.9>:
     fc0:	b2 9f       	mul	r27, r18

00000fc2 <.Loc.10>:
     fc2:	70 0d       	add	r23, r0

00000fc4 <.Loc.11>:
     fc4:	81 1d       	adc	r24, r1

00000fc6 <.Loc.12>:
     fc6:	11 24       	eor	r1, r1

00000fc8 <.Loc.13>:
     fc8:	91 1d       	adc	r25, r1

00000fca <.Loc.14>:
     fca:	08 95       	ret

00000fcc <__subsf3>:
     fcc:	50 58       	subi	r21, 0x80	; 128

00000fce <__addsf3>:
     fce:	bb 27       	eor	r27, r27
     fd0:	aa 27       	eor	r26, r26
     fd2:	0e 94 fe 07 	call	0xffc	; 0xffc <__addsf3x>
     fd6:	0c 94 4f 09 	jmp	0x129e	; 0x129e <__fp_round>

00000fda <.L^B1>:
     fda:	0e 94 41 09 	call	0x1282	; 0x1282 <__fp_pscA>
     fde:	38 f0       	brcs	.+14     	; 0xfee <.L_nan>
     fe0:	0e 94 48 09 	call	0x1290	; 0x1290 <__fp_pscB>
     fe4:	20 f0       	brcs	.+8      	; 0xfee <.L_nan>
     fe6:	39 f4       	brne	.+14     	; 0xff6 <.L_inf>
     fe8:	9f 3f       	cpi	r25, 0xFF	; 255
     fea:	19 f4       	brne	.+6      	; 0xff2 <.L_infB>
     fec:	26 f4       	brtc	.+8      	; 0xff6 <.L_inf>

00000fee <.L_nan>:
     fee:	0c 94 3e 09 	jmp	0x127c	; 0x127c <__fp_nan>

00000ff2 <.L_infB>:
     ff2:	0e f4       	brtc	.+2      	; 0xff6 <.L_inf>
     ff4:	e0 95       	com	r30

00000ff6 <.L_inf>:
     ff6:	e7 fb       	bst	r30, 7
     ff8:	0c 94 38 09 	jmp	0x1270	; 0x1270 <__fp_inf>

00000ffc <__addsf3x>:
     ffc:	e9 2f       	mov	r30, r25
     ffe:	0e 94 60 09 	call	0x12c0	; 0x12c0 <__fp_split3>
    1002:	58 f3       	brcs	.-42     	; 0xfda <.L^B1>
    1004:	ba 17       	cp	r27, r26
    1006:	62 07       	cpc	r22, r18
    1008:	73 07       	cpc	r23, r19
    100a:	84 07       	cpc	r24, r20
    100c:	95 07       	cpc	r25, r21
    100e:	20 f0       	brcs	.+8      	; 0x1018 <.L2^B1>
    1010:	79 f4       	brne	.+30     	; 0x1030 <.L4^B1>
    1012:	a6 f5       	brtc	.+104    	; 0x107c <.L_add>
    1014:	0c 94 82 09 	jmp	0x1304	; 0x1304 <__fp_zero>

00001018 <.L2^B1>:
    1018:	0e f4       	brtc	.+2      	; 0x101c <.L3^B1>
    101a:	e0 95       	com	r30

0000101c <.L3^B1>:
    101c:	0b 2e       	mov	r0, r27
    101e:	ba 2f       	mov	r27, r26
    1020:	a0 2d       	mov	r26, r0
    1022:	0b 01       	movw	r0, r22
    1024:	b9 01       	movw	r22, r18
    1026:	90 01       	movw	r18, r0
    1028:	0c 01       	movw	r0, r24
    102a:	ca 01       	movw	r24, r20
    102c:	a0 01       	movw	r20, r0
    102e:	11 24       	eor	r1, r1

00001030 <.L4^B1>:
    1030:	ff 27       	eor	r31, r31
    1032:	59 1b       	sub	r21, r25

00001034 <.L5^B1>:
    1034:	99 f0       	breq	.+38     	; 0x105c <.L7^B1>
    1036:	59 3f       	cpi	r21, 0xF9	; 249
    1038:	50 f4       	brcc	.+20     	; 0x104e <.L6^B1>
    103a:	50 3e       	cpi	r21, 0xE0	; 224
    103c:	68 f1       	brcs	.+90     	; 0x1098 <.L_ret>
    103e:	1a 16       	cp	r1, r26
    1040:	f0 40       	sbci	r31, 0x00	; 0
    1042:	a2 2f       	mov	r26, r18
    1044:	23 2f       	mov	r18, r19
    1046:	34 2f       	mov	r19, r20
    1048:	44 27       	eor	r20, r20
    104a:	58 5f       	subi	r21, 0xF8	; 248
    104c:	f3 cf       	rjmp	.-26     	; 0x1034 <.L5^B1>

0000104e <.L6^B1>:
    104e:	46 95       	lsr	r20
    1050:	37 95       	ror	r19
    1052:	27 95       	ror	r18
    1054:	a7 95       	ror	r26
    1056:	f0 40       	sbci	r31, 0x00	; 0
    1058:	53 95       	inc	r21
    105a:	c9 f7       	brne	.-14     	; 0x104e <.L6^B1>

0000105c <.L7^B1>:
    105c:	7e f4       	brtc	.+30     	; 0x107c <.L_add>
    105e:	1f 16       	cp	r1, r31
    1060:	ba 0b       	sbc	r27, r26
    1062:	62 0b       	sbc	r22, r18
    1064:	73 0b       	sbc	r23, r19
    1066:	84 0b       	sbc	r24, r20
    1068:	ba f0       	brmi	.+46     	; 0x1098 <.L_ret>

0000106a <.L8^B1>:
    106a:	91 50       	subi	r25, 0x01	; 1
    106c:	a1 f0       	breq	.+40     	; 0x1096 <.L9^B1>
    106e:	ff 0f       	add	r31, r31
    1070:	bb 1f       	adc	r27, r27
    1072:	66 1f       	adc	r22, r22
    1074:	77 1f       	adc	r23, r23
    1076:	88 1f       	adc	r24, r24
    1078:	c2 f7       	brpl	.-16     	; 0x106a <.L8^B1>
    107a:	0e c0       	rjmp	.+28     	; 0x1098 <.L_ret>

0000107c <.L_add>:
    107c:	ba 0f       	add	r27, r26
    107e:	62 1f       	adc	r22, r18
    1080:	73 1f       	adc	r23, r19
    1082:	84 1f       	adc	r24, r20
    1084:	48 f4       	brcc	.+18     	; 0x1098 <.L_ret>
    1086:	87 95       	ror	r24
    1088:	77 95       	ror	r23
    108a:	67 95       	ror	r22
    108c:	b7 95       	ror	r27
    108e:	f7 95       	ror	r31
    1090:	9e 3f       	cpi	r25, 0xFE	; 254
    1092:	08 f0       	brcs	.+2      	; 0x1096 <.L9^B1>
    1094:	b0 cf       	rjmp	.-160    	; 0xff6 <.L_inf>

00001096 <.L9^B1>:
    1096:	93 95       	inc	r25

00001098 <.L_ret>:
    1098:	88 0f       	add	r24, r24
    109a:	08 f0       	brcs	.+2      	; 0x109e <.L1^B1>
    109c:	99 27       	eor	r25, r25

0000109e <.L1^B1>:
    109e:	ee 0f       	add	r30, r30
    10a0:	97 95       	ror	r25
    10a2:	87 95       	ror	r24
    10a4:	08 95       	ret

000010a6 <__divsf3>:
    10a6:	0e 94 67 08 	call	0x10ce	; 0x10ce <__divsf3x>
    10aa:	0c 94 4f 09 	jmp	0x129e	; 0x129e <__fp_round>

000010ae <.L^B1>:
    10ae:	0e 94 48 09 	call	0x1290	; 0x1290 <__fp_pscB>
    10b2:	58 f0       	brcs	.+22     	; 0x10ca <.L_nan>
    10b4:	0e 94 41 09 	call	0x1282	; 0x1282 <__fp_pscA>
    10b8:	40 f0       	brcs	.+16     	; 0x10ca <.L_nan>
    10ba:	29 f4       	brne	.+10     	; 0x10c6 <.L_zr>
    10bc:	5f 3f       	cpi	r21, 0xFF	; 255
    10be:	29 f0       	breq	.+10     	; 0x10ca <.L_nan>

000010c0 <.L_inf>:
    10c0:	0c 94 38 09 	jmp	0x1270	; 0x1270 <__fp_inf>

000010c4 <.L1^B1>:
    10c4:	51 11       	cpse	r21, r1

000010c6 <.L_zr>:
    10c6:	0c 94 83 09 	jmp	0x1306	; 0x1306 <__fp_szero>

000010ca <.L_nan>:
    10ca:	0c 94 3e 09 	jmp	0x127c	; 0x127c <__fp_nan>

000010ce <__divsf3x>:
    10ce:	0e 94 60 09 	call	0x12c0	; 0x12c0 <__fp_split3>
    10d2:	68 f3       	brcs	.-38     	; 0x10ae <.L^B1>

000010d4 <__divsf3_pse>:
    10d4:	99 23       	and	r25, r25
    10d6:	b1 f3       	breq	.-20     	; 0x10c4 <.L1^B1>
    10d8:	55 23       	and	r21, r21
    10da:	91 f3       	breq	.-28     	; 0x10c0 <.L_inf>
    10dc:	95 1b       	sub	r25, r21
    10de:	55 0b       	sbc	r21, r21
    10e0:	bb 27       	eor	r27, r27
    10e2:	aa 27       	eor	r26, r26

000010e4 <.L2^B1>:
    10e4:	62 17       	cp	r22, r18
    10e6:	73 07       	cpc	r23, r19
    10e8:	84 07       	cpc	r24, r20
    10ea:	38 f0       	brcs	.+14     	; 0x10fa <.L3^B1>
    10ec:	9f 5f       	subi	r25, 0xFF	; 255
    10ee:	5f 4f       	sbci	r21, 0xFF	; 255
    10f0:	22 0f       	add	r18, r18
    10f2:	33 1f       	adc	r19, r19
    10f4:	44 1f       	adc	r20, r20
    10f6:	aa 1f       	adc	r26, r26
    10f8:	a9 f3       	breq	.-22     	; 0x10e4 <.L2^B1>

000010fa <.L3^B1>:
    10fa:	35 d0       	rcall	.+106    	; 0x1166 <.L_div>
    10fc:	0e 2e       	mov	r0, r30
    10fe:	3a f0       	brmi	.+14     	; 0x110e <.L5^B1>

00001100 <.L4^B1>:
    1100:	e0 e8       	ldi	r30, 0x80	; 128
    1102:	32 d0       	rcall	.+100    	; 0x1168 <.L_div1>
    1104:	91 50       	subi	r25, 0x01	; 1
    1106:	50 40       	sbci	r21, 0x00	; 0
    1108:	e6 95       	lsr	r30
    110a:	00 1c       	adc	r0, r0
    110c:	ca f7       	brpl	.-14     	; 0x1100 <.L4^B1>

0000110e <.L5^B1>:
    110e:	2b d0       	rcall	.+86     	; 0x1166 <.L_div>
    1110:	fe 2f       	mov	r31, r30
    1112:	29 d0       	rcall	.+82     	; 0x1166 <.L_div>
    1114:	66 0f       	add	r22, r22
    1116:	77 1f       	adc	r23, r23
    1118:	88 1f       	adc	r24, r24
    111a:	bb 1f       	adc	r27, r27
    111c:	26 17       	cp	r18, r22
    111e:	37 07       	cpc	r19, r23
    1120:	48 07       	cpc	r20, r24
    1122:	ab 07       	cpc	r26, r27
    1124:	b0 e8       	ldi	r27, 0x80	; 128
    1126:	09 f0       	breq	.+2      	; 0x112a <.L4^B2>
    1128:	bb 0b       	sbc	r27, r27

0000112a <.L4^B2>:
    112a:	80 2d       	mov	r24, r0
    112c:	bf 01       	movw	r22, r30
    112e:	ff 27       	eor	r31, r31
    1130:	93 58       	subi	r25, 0x83	; 131
    1132:	5f 4f       	sbci	r21, 0xFF	; 255
    1134:	3a f0       	brmi	.+14     	; 0x1144 <.L13^B1>
    1136:	9e 3f       	cpi	r25, 0xFE	; 254
    1138:	51 05       	cpc	r21, r1
    113a:	78 f0       	brcs	.+30     	; 0x115a <.L15^B1>
    113c:	0c 94 38 09 	jmp	0x1270	; 0x1270 <__fp_inf>

00001140 <.L12^B1>:
    1140:	0c 94 83 09 	jmp	0x1306	; 0x1306 <__fp_szero>

00001144 <.L13^B1>:
    1144:	5f 3f       	cpi	r21, 0xFF	; 255
    1146:	e4 f3       	brlt	.-8      	; 0x1140 <.L12^B1>
    1148:	98 3e       	cpi	r25, 0xE8	; 232
    114a:	d4 f3       	brlt	.-12     	; 0x1140 <.L12^B1>

0000114c <.L14^B1>:
    114c:	86 95       	lsr	r24
    114e:	77 95       	ror	r23
    1150:	67 95       	ror	r22
    1152:	b7 95       	ror	r27
    1154:	f7 95       	ror	r31
    1156:	9f 5f       	subi	r25, 0xFF	; 255
    1158:	c9 f7       	brne	.-14     	; 0x114c <.L14^B1>

0000115a <.L15^B1>:
    115a:	88 0f       	add	r24, r24
    115c:	91 1d       	adc	r25, r1
    115e:	96 95       	lsr	r25
    1160:	87 95       	ror	r24
    1162:	97 f9       	bld	r25, 7
    1164:	08 95       	ret

00001166 <.L_div>:
    1166:	e1 e0       	ldi	r30, 0x01	; 1

00001168 <.L_div1>:
    1168:	66 0f       	add	r22, r22
    116a:	77 1f       	adc	r23, r23
    116c:	88 1f       	adc	r24, r24
    116e:	bb 1f       	adc	r27, r27
    1170:	62 17       	cp	r22, r18
    1172:	73 07       	cpc	r23, r19
    1174:	84 07       	cpc	r24, r20
    1176:	ba 07       	cpc	r27, r26
    1178:	20 f0       	brcs	.+8      	; 0x1182 <.L2^B2>
    117a:	62 1b       	sub	r22, r18
    117c:	73 0b       	sbc	r23, r19
    117e:	84 0b       	sbc	r24, r20
    1180:	ba 0b       	sbc	r27, r26

00001182 <.L2^B2>:
    1182:	ee 1f       	adc	r30, r30
    1184:	88 f7       	brcc	.-30     	; 0x1168 <.L_div1>
    1186:	e0 95       	com	r30
    1188:	08 95       	ret

0000118a <__fixsfsi>:
    118a:	0e 94 cc 08 	call	0x1198	; 0x1198 <__fixunssfsi>
    118e:	68 94       	set
    1190:	b1 11       	cpse	r27, r1
    1192:	0c 94 83 09 	jmp	0x1306	; 0x1306 <__fp_szero>
    1196:	08 95       	ret

00001198 <__fixunssfsi>:
    1198:	0e 94 68 09 	call	0x12d0	; 0x12d0 <__fp_splitA>
    119c:	88 f0       	brcs	.+34     	; 0x11c0 <.L_err>
    119e:	9f 57       	subi	r25, 0x7F	; 127
    11a0:	98 f0       	brcs	.+38     	; 0x11c8 <.L_zr>
    11a2:	b9 2f       	mov	r27, r25
    11a4:	99 27       	eor	r25, r25
    11a6:	b7 51       	subi	r27, 0x17	; 23
    11a8:	b0 f0       	brcs	.+44     	; 0x11d6 <.L4^B1>
    11aa:	e1 f0       	breq	.+56     	; 0x11e4 <.L_sign>

000011ac <.L1^B1>:
    11ac:	66 0f       	add	r22, r22
    11ae:	77 1f       	adc	r23, r23
    11b0:	88 1f       	adc	r24, r24
    11b2:	99 1f       	adc	r25, r25
    11b4:	1a f0       	brmi	.+6      	; 0x11bc <.L2^B1>
    11b6:	ba 95       	dec	r27
    11b8:	c9 f7       	brne	.-14     	; 0x11ac <.L1^B1>
    11ba:	14 c0       	rjmp	.+40     	; 0x11e4 <.L_sign>

000011bc <.L2^B1>:
    11bc:	b1 30       	cpi	r27, 0x01	; 1
    11be:	91 f0       	breq	.+36     	; 0x11e4 <.L_sign>

000011c0 <.L_err>:
    11c0:	0e 94 82 09 	call	0x1304	; 0x1304 <__fp_zero>
    11c4:	b1 e0       	ldi	r27, 0x01	; 1
    11c6:	08 95       	ret

000011c8 <.L_zr>:
    11c8:	0c 94 82 09 	jmp	0x1304	; 0x1304 <__fp_zero>

000011cc <.L3^B1>:
    11cc:	67 2f       	mov	r22, r23
    11ce:	78 2f       	mov	r23, r24
    11d0:	88 27       	eor	r24, r24
    11d2:	b8 5f       	subi	r27, 0xF8	; 248
    11d4:	39 f0       	breq	.+14     	; 0x11e4 <.L_sign>

000011d6 <.L4^B1>:
    11d6:	b9 3f       	cpi	r27, 0xF9	; 249
    11d8:	cc f3       	brlt	.-14     	; 0x11cc <.L3^B1>

000011da <.L5^B1>:
    11da:	86 95       	lsr	r24
    11dc:	77 95       	ror	r23
    11de:	67 95       	ror	r22
    11e0:	b3 95       	inc	r27
    11e2:	d9 f7       	brne	.-10     	; 0x11da <.L5^B1>

000011e4 <.L_sign>:
    11e4:	3e f4       	brtc	.+14     	; 0x11f4 <.L6^B1>
    11e6:	90 95       	com	r25
    11e8:	80 95       	com	r24
    11ea:	70 95       	com	r23
    11ec:	61 95       	neg	r22
    11ee:	7f 4f       	sbci	r23, 0xFF	; 255
    11f0:	8f 4f       	sbci	r24, 0xFF	; 255
    11f2:	9f 4f       	sbci	r25, 0xFF	; 255

000011f4 <.L6^B1>:
    11f4:	08 95       	ret

000011f6 <__floatunsisf>:
    11f6:	e8 94       	clt
    11f8:	09 c0       	rjmp	.+18     	; 0x120c <.L1^B1>

000011fa <__floatsisf>:
    11fa:	97 fb       	bst	r25, 7
    11fc:	3e f4       	brtc	.+14     	; 0x120c <.L1^B1>
    11fe:	90 95       	com	r25
    1200:	80 95       	com	r24
    1202:	70 95       	com	r23
    1204:	61 95       	neg	r22
    1206:	7f 4f       	sbci	r23, 0xFF	; 255
    1208:	8f 4f       	sbci	r24, 0xFF	; 255
    120a:	9f 4f       	sbci	r25, 0xFF	; 255

0000120c <.L1^B1>:
    120c:	99 23       	and	r25, r25
    120e:	a9 f0       	breq	.+42     	; 0x123a <.L4^B1>
    1210:	f9 2f       	mov	r31, r25
    1212:	96 e9       	ldi	r25, 0x96	; 150
    1214:	bb 27       	eor	r27, r27

00001216 <.L2^B1>:
    1216:	93 95       	inc	r25
    1218:	f6 95       	lsr	r31
    121a:	87 95       	ror	r24
    121c:	77 95       	ror	r23
    121e:	67 95       	ror	r22
    1220:	b7 95       	ror	r27
    1222:	f1 11       	cpse	r31, r1
    1224:	f8 cf       	rjmp	.-16     	; 0x1216 <.L2^B1>
    1226:	fa f4       	brpl	.+62     	; 0x1266 <.L_pack>
    1228:	bb 0f       	add	r27, r27
    122a:	11 f4       	brne	.+4      	; 0x1230 <.L3^B1>
    122c:	60 ff       	sbrs	r22, 0
    122e:	1b c0       	rjmp	.+54     	; 0x1266 <.L_pack>

00001230 <.L3^B1>:
    1230:	6f 5f       	subi	r22, 0xFF	; 255
    1232:	7f 4f       	sbci	r23, 0xFF	; 255
    1234:	8f 4f       	sbci	r24, 0xFF	; 255
    1236:	9f 4f       	sbci	r25, 0xFF	; 255
    1238:	16 c0       	rjmp	.+44     	; 0x1266 <.L_pack>

0000123a <.L4^B1>:
    123a:	88 23       	and	r24, r24
    123c:	11 f0       	breq	.+4      	; 0x1242 <.L5^B1>
    123e:	96 e9       	ldi	r25, 0x96	; 150
    1240:	11 c0       	rjmp	.+34     	; 0x1264 <.L8^B1>

00001242 <.L5^B1>:
    1242:	77 23       	and	r23, r23
    1244:	21 f0       	breq	.+8      	; 0x124e <.L6^B1>
    1246:	9e e8       	ldi	r25, 0x8E	; 142
    1248:	87 2f       	mov	r24, r23
    124a:	76 2f       	mov	r23, r22
    124c:	05 c0       	rjmp	.+10     	; 0x1258 <.L7^B1>

0000124e <.L6^B1>:
    124e:	66 23       	and	r22, r22
    1250:	71 f0       	breq	.+28     	; 0x126e <.L9^B1>
    1252:	96 e8       	ldi	r25, 0x86	; 134
    1254:	86 2f       	mov	r24, r22
    1256:	70 e0       	ldi	r23, 0x00	; 0

00001258 <.L7^B1>:
    1258:	60 e0       	ldi	r22, 0x00	; 0
    125a:	2a f0       	brmi	.+10     	; 0x1266 <.L_pack>

0000125c <.L10^B1>:
    125c:	9a 95       	dec	r25
    125e:	66 0f       	add	r22, r22
    1260:	77 1f       	adc	r23, r23
    1262:	88 1f       	adc	r24, r24

00001264 <.L8^B1>:
    1264:	da f7       	brpl	.-10     	; 0x125c <.L10^B1>

00001266 <.L_pack>:
    1266:	88 0f       	add	r24, r24
    1268:	96 95       	lsr	r25
    126a:	87 95       	ror	r24
    126c:	97 f9       	bld	r25, 7

0000126e <.L9^B1>:
    126e:	08 95       	ret

00001270 <__fp_inf>:
    1270:	97 f9       	bld	r25, 7
    1272:	9f 67       	ori	r25, 0x7F	; 127
    1274:	80 e8       	ldi	r24, 0x80	; 128
    1276:	70 e0       	ldi	r23, 0x00	; 0
    1278:	60 e0       	ldi	r22, 0x00	; 0
    127a:	08 95       	ret

0000127c <__fp_nan>:
    127c:	9f ef       	ldi	r25, 0xFF	; 255
    127e:	80 ec       	ldi	r24, 0xC0	; 192
    1280:	08 95       	ret

00001282 <__fp_pscA>:
    1282:	00 24       	eor	r0, r0
    1284:	0a 94       	dec	r0
    1286:	16 16       	cp	r1, r22
    1288:	17 06       	cpc	r1, r23
    128a:	18 06       	cpc	r1, r24
    128c:	09 06       	cpc	r0, r25
    128e:	08 95       	ret

00001290 <__fp_pscB>:
    1290:	00 24       	eor	r0, r0
    1292:	0a 94       	dec	r0
    1294:	12 16       	cp	r1, r18
    1296:	13 06       	cpc	r1, r19
    1298:	14 06       	cpc	r1, r20
    129a:	05 06       	cpc	r0, r21
    129c:	08 95       	ret

0000129e <__fp_round>:
    129e:	09 2e       	mov	r0, r25
    12a0:	03 94       	inc	r0
    12a2:	00 0c       	add	r0, r0
    12a4:	11 f4       	brne	.+4      	; 0x12aa <.L1^B1>
    12a6:	88 23       	and	r24, r24
    12a8:	52 f0       	brmi	.+20     	; 0x12be <.L3^B1>

000012aa <.L1^B1>:
    12aa:	bb 0f       	add	r27, r27
    12ac:	40 f4       	brcc	.+16     	; 0x12be <.L3^B1>
    12ae:	bf 2b       	or	r27, r31
    12b0:	11 f4       	brne	.+4      	; 0x12b6 <.L2^B1>
    12b2:	60 ff       	sbrs	r22, 0
    12b4:	04 c0       	rjmp	.+8      	; 0x12be <.L3^B1>

000012b6 <.L2^B1>:
    12b6:	6f 5f       	subi	r22, 0xFF	; 255
    12b8:	7f 4f       	sbci	r23, 0xFF	; 255
    12ba:	8f 4f       	sbci	r24, 0xFF	; 255
    12bc:	9f 4f       	sbci	r25, 0xFF	; 255

000012be <.L3^B1>:
    12be:	08 95       	ret

000012c0 <__fp_split3>:
    12c0:	57 fd       	sbrc	r21, 7
    12c2:	90 58       	subi	r25, 0x80	; 128
    12c4:	44 0f       	add	r20, r20
    12c6:	55 1f       	adc	r21, r21
    12c8:	59 f0       	breq	.+22     	; 0x12e0 <.L4^B1>
    12ca:	5f 3f       	cpi	r21, 0xFF	; 255
    12cc:	71 f0       	breq	.+28     	; 0x12ea <.L5^B1>

000012ce <.L1^B1>:
    12ce:	47 95       	ror	r20

000012d0 <__fp_splitA>:
    12d0:	88 0f       	add	r24, r24
    12d2:	97 fb       	bst	r25, 7
    12d4:	99 1f       	adc	r25, r25
    12d6:	61 f0       	breq	.+24     	; 0x12f0 <.L6^B1>
    12d8:	9f 3f       	cpi	r25, 0xFF	; 255
    12da:	79 f0       	breq	.+30     	; 0x12fa <.L7^B1>

000012dc <.L3^B1>:
    12dc:	87 95       	ror	r24
    12de:	08 95       	ret

000012e0 <.L4^B1>:
    12e0:	12 16       	cp	r1, r18
    12e2:	13 06       	cpc	r1, r19
    12e4:	14 06       	cpc	r1, r20
    12e6:	55 1f       	adc	r21, r21
    12e8:	f2 cf       	rjmp	.-28     	; 0x12ce <.L1^B1>

000012ea <.L5^B1>:
    12ea:	46 95       	lsr	r20
    12ec:	f1 df       	rcall	.-30     	; 0x12d0 <__fp_splitA>
    12ee:	08 c0       	rjmp	.+16     	; 0x1300 <.L8^B1>

000012f0 <.L6^B1>:
    12f0:	16 16       	cp	r1, r22
    12f2:	17 06       	cpc	r1, r23
    12f4:	18 06       	cpc	r1, r24
    12f6:	99 1f       	adc	r25, r25
    12f8:	f1 cf       	rjmp	.-30     	; 0x12dc <.L3^B1>

000012fa <.L7^B1>:
    12fa:	86 95       	lsr	r24
    12fc:	71 05       	cpc	r23, r1
    12fe:	61 05       	cpc	r22, r1

00001300 <.L8^B1>:
    1300:	08 94       	sec
    1302:	08 95       	ret

00001304 <__fp_zero>:
    1304:	e8 94       	clt

00001306 <__fp_szero>:
    1306:	bb 27       	eor	r27, r27
    1308:	66 27       	eor	r22, r22
    130a:	77 27       	eor	r23, r23
    130c:	cb 01       	movw	r24, r22
    130e:	97 f9       	bld	r25, 7
    1310:	08 95       	ret

00001312 <__mulsf3>:
    1312:	0e 94 9c 09 	call	0x1338	; 0x1338 <__mulsf3x>
    1316:	0c 94 4f 09 	jmp	0x129e	; 0x129e <__fp_round>

0000131a <.L^B1>:
    131a:	0e 94 41 09 	call	0x1282	; 0x1282 <__fp_pscA>
    131e:	38 f0       	brcs	.+14     	; 0x132e <.L1^B1>
    1320:	0e 94 48 09 	call	0x1290	; 0x1290 <__fp_pscB>
    1324:	20 f0       	brcs	.+8      	; 0x132e <.L1^B1>
    1326:	95 23       	and	r25, r21
    1328:	11 f0       	breq	.+4      	; 0x132e <.L1^B1>
    132a:	0c 94 38 09 	jmp	0x1270	; 0x1270 <__fp_inf>

0000132e <.L1^B1>:
    132e:	0c 94 3e 09 	jmp	0x127c	; 0x127c <__fp_nan>

00001332 <.L2^B1>:
    1332:	11 24       	eor	r1, r1
    1334:	0c 94 83 09 	jmp	0x1306	; 0x1306 <__fp_szero>

00001338 <__mulsf3x>:
    1338:	0e 94 60 09 	call	0x12c0	; 0x12c0 <__fp_split3>
    133c:	70 f3       	brcs	.-36     	; 0x131a <.L^B1>

0000133e <__mulsf3_pse>:
    133e:	95 9f       	mul	r25, r21
    1340:	c1 f3       	breq	.-16     	; 0x1332 <.L2^B1>
    1342:	95 0f       	add	r25, r21
    1344:	50 e0       	ldi	r21, 0x00	; 0
    1346:	55 1f       	adc	r21, r21
    1348:	62 9f       	mul	r22, r18
    134a:	f0 01       	movw	r30, r0
    134c:	72 9f       	mul	r23, r18
    134e:	bb 27       	eor	r27, r27
    1350:	f0 0d       	add	r31, r0
    1352:	b1 1d       	adc	r27, r1
    1354:	63 9f       	mul	r22, r19
    1356:	aa 27       	eor	r26, r26
    1358:	f0 0d       	add	r31, r0
    135a:	b1 1d       	adc	r27, r1
    135c:	aa 1f       	adc	r26, r26
    135e:	64 9f       	mul	r22, r20
    1360:	66 27       	eor	r22, r22
    1362:	b0 0d       	add	r27, r0
    1364:	a1 1d       	adc	r26, r1
    1366:	66 1f       	adc	r22, r22
    1368:	82 9f       	mul	r24, r18
    136a:	22 27       	eor	r18, r18
    136c:	b0 0d       	add	r27, r0
    136e:	a1 1d       	adc	r26, r1
    1370:	62 1f       	adc	r22, r18
    1372:	73 9f       	mul	r23, r19
    1374:	b0 0d       	add	r27, r0
    1376:	a1 1d       	adc	r26, r1
    1378:	62 1f       	adc	r22, r18
    137a:	83 9f       	mul	r24, r19
    137c:	a0 0d       	add	r26, r0
    137e:	61 1d       	adc	r22, r1
    1380:	22 1f       	adc	r18, r18
    1382:	74 9f       	mul	r23, r20
    1384:	33 27       	eor	r19, r19
    1386:	a0 0d       	add	r26, r0
    1388:	61 1d       	adc	r22, r1
    138a:	23 1f       	adc	r18, r19
    138c:	84 9f       	mul	r24, r20
    138e:	60 0d       	add	r22, r0
    1390:	21 1d       	adc	r18, r1
    1392:	82 2f       	mov	r24, r18
    1394:	76 2f       	mov	r23, r22
    1396:	6a 2f       	mov	r22, r26
    1398:	11 24       	eor	r1, r1
    139a:	9f 57       	subi	r25, 0x7F	; 127
    139c:	50 40       	sbci	r21, 0x00	; 0
    139e:	9a f0       	brmi	.+38     	; 0x13c6 <.L13^B1>
    13a0:	f1 f0       	breq	.+60     	; 0x13de <.L15^B1>

000013a2 <.L10^B1>:
    13a2:	88 23       	and	r24, r24
    13a4:	4a f0       	brmi	.+18     	; 0x13b8 <.L11^B1>
    13a6:	ee 0f       	add	r30, r30
    13a8:	ff 1f       	adc	r31, r31
    13aa:	bb 1f       	adc	r27, r27
    13ac:	66 1f       	adc	r22, r22
    13ae:	77 1f       	adc	r23, r23
    13b0:	88 1f       	adc	r24, r24
    13b2:	91 50       	subi	r25, 0x01	; 1
    13b4:	50 40       	sbci	r21, 0x00	; 0
    13b6:	a9 f7       	brne	.-22     	; 0x13a2 <.L10^B1>

000013b8 <.L11^B1>:
    13b8:	9e 3f       	cpi	r25, 0xFE	; 254
    13ba:	51 05       	cpc	r21, r1
    13bc:	80 f0       	brcs	.+32     	; 0x13de <.L15^B1>
    13be:	0c 94 38 09 	jmp	0x1270	; 0x1270 <__fp_inf>

000013c2 <.L12^B1>:
    13c2:	0c 94 83 09 	jmp	0x1306	; 0x1306 <__fp_szero>

000013c6 <.L13^B1>:
    13c6:	5f 3f       	cpi	r21, 0xFF	; 255
    13c8:	e4 f3       	brlt	.-8      	; 0x13c2 <.L12^B1>
    13ca:	98 3e       	cpi	r25, 0xE8	; 232
    13cc:	d4 f3       	brlt	.-12     	; 0x13c2 <.L12^B1>

000013ce <.L14^B1>:
    13ce:	86 95       	lsr	r24
    13d0:	77 95       	ror	r23
    13d2:	67 95       	ror	r22
    13d4:	b7 95       	ror	r27
    13d6:	f7 95       	ror	r31
    13d8:	e7 95       	ror	r30
    13da:	9f 5f       	subi	r25, 0xFF	; 255
    13dc:	c1 f7       	brne	.-16     	; 0x13ce <.L14^B1>

000013de <.L15^B1>:
    13de:	fe 2b       	or	r31, r30
    13e0:	88 0f       	add	r24, r24
    13e2:	91 1d       	adc	r25, r1
    13e4:	96 95       	lsr	r25
    13e6:	87 95       	ror	r24
    13e8:	97 f9       	bld	r25, 7
    13ea:	08 95       	ret

000013ec <_exit>:
    13ec:	f8 94       	cli

000013ee <__stop_program>:
    13ee:	ff cf       	rjmp	.-2      	; 0x13ee <__stop_program>
